V3.10
p0
.VLALR
p0
.VleftORleftANDleftEQNEleftLTLEGTGEleftPLUSMINUSleftMULTIPLYDIVIDErightUMINUSAND APPEND ARR ASSIGN BOX COMMA CONCAT CURRENT DAY DIFF DIV DIVIDE DOT ELSE EQ FALSE FLOAT FUN GE GT HOLD HOUR ID IF INTEGER IS KEY LBRACE LBRACKET LE LEN LET LIST LPAREN LT MAP MINUS MINUTE MOD MODULO MONTH MULTIPLY NE NOT NOW NULL OR PLUS PRINT PROD PUT RBRACE RBRACKET READ REF REMOVE RETURN RPAREN SECOND SEMICOLON SHOW SLICE STORE STRING SUM TAKE TEXT TRUE VALUE WHEN WHILE YEARprogram : statementsstatements : statements statementstatements : statementstatement : variable_decl_stmt\u000a                 | function_decl_stmt\u000a                 | show_stmt\u000a                 | print_stmt\u000a                 | if_stmt\u000a                 | while_stmt\u000a                 | return_stmt\u000a                 | expression_stmt\u000a                 | empty_stmtempty_stmt : SEMICOLONvariable_decl_stmt : LET ID ASSIGN expression SEMICOLON\u000a                         | TAKE ID ASSIGN expression SEMICOLON\u000a                         | HOLD ID ASSIGN expression SEMICOLON\u000a                         | PUT ID ASSIGN expression SEMICOLONfunction_decl_stmt : FUN ID LPAREN params RPAREN LBRACE statements RBRACEparams : param_list\u000a              | emptyparam_list : param_list COMMA paramparam_list : paramparam : IDshow_stmt : SHOW expression SEMICOLONprint_stmt : PRINT expression SEMICOLONif_stmt : IF expression LBRACE statements RBRACE else_optelse_opt : ELSE LBRACE statements RBRACE\u000a                | emptywhile_stmt : WHILE expression LBRACE statements RBRACEreturn_stmt : RETURN expression SEMICOLON\u000a                   | RETURN SEMICOLONexpression_stmt : expression SEMICOLONexpression : expression PLUS expression\u000a                 | expression MINUS expression\u000a                 | expression MULTIPLY expression\u000a                 | expression DIVIDE expression\u000a                 | expression EQ expression\u000a                 | expression NE expression\u000a                 | expression LT expression\u000a                 | expression LE expression\u000a                 | expression GT expression\u000a                 | expression GE expression\u000a                 | expression AND expression\u000a                 | expression OR expressionexpression : MINUS expression %prec UMINUSexpression : NOT expressionexpression : LPAREN expression RPARENexpression : factorfactor : INTEGER\u000a              | FLOAT\u000a              | STRING\u000a              | TRUE\u000a              | FALSE\u000a              | NULLfactor : IDempty :
p0
.(dp0
I0
(dp1
VLET
p2
I13
sVTAKE
p3
I17
sVHOLD
p4
I18
sVPUT
p5
I19
sVFUN
p6
I20
sVSHOW
p7
I22
sVPRINT
p8
I23
sVIF
p9
I24
sVWHILE
p10
I25
sVRETURN
p11
I26
sVSEMICOLON
p12
I16
sVMINUS
p13
I27
sVNOT
p14
I28
sVLPAREN
p15
I21
sVINTEGER
p16
I30
sVFLOAT
p17
I31
sVSTRING
p18
I32
sVTRUE
p19
I33
sVFALSE
p20
I34
sVNULL
p21
I35
sVID
p22
I14
ssI1
(dp23
V$end
p24
I0
ssI2
(dp25
g24
I-1
sg2
I13
sg3
I17
sg4
I18
sg5
I19
sg6
I20
sg7
I22
sg8
I23
sg9
I24
sg10
I25
sg11
I26
sg12
I16
sg13
I27
sg14
I28
sg15
I21
sg16
I30
sg17
I31
sg18
I32
sg19
I33
sg20
I34
sg21
I35
sg22
I14
ssI3
(dp26
g2
I-3
sg3
I-3
sg4
I-3
sg5
I-3
sg6
I-3
sg7
I-3
sg8
I-3
sg9
I-3
sg10
I-3
sg11
I-3
sg12
I-3
sg13
I-3
sg14
I-3
sg15
I-3
sg16
I-3
sg17
I-3
sg18
I-3
sg19
I-3
sg20
I-3
sg21
I-3
sg22
I-3
sg24
I-3
sVRBRACE
p27
I-3
ssI4
(dp28
g2
I-4
sg3
I-4
sg4
I-4
sg5
I-4
sg6
I-4
sg7
I-4
sg8
I-4
sg9
I-4
sg10
I-4
sg11
I-4
sg12
I-4
sg13
I-4
sg14
I-4
sg15
I-4
sg16
I-4
sg17
I-4
sg18
I-4
sg19
I-4
sg20
I-4
sg21
I-4
sg22
I-4
sg24
I-4
sg27
I-4
ssI5
(dp29
g2
I-5
sg3
I-5
sg4
I-5
sg5
I-5
sg6
I-5
sg7
I-5
sg8
I-5
sg9
I-5
sg10
I-5
sg11
I-5
sg12
I-5
sg13
I-5
sg14
I-5
sg15
I-5
sg16
I-5
sg17
I-5
sg18
I-5
sg19
I-5
sg20
I-5
sg21
I-5
sg22
I-5
sg24
I-5
sg27
I-5
ssI6
(dp30
g2
I-6
sg3
I-6
sg4
I-6
sg5
I-6
sg6
I-6
sg7
I-6
sg8
I-6
sg9
I-6
sg10
I-6
sg11
I-6
sg12
I-6
sg13
I-6
sg14
I-6
sg15
I-6
sg16
I-6
sg17
I-6
sg18
I-6
sg19
I-6
sg20
I-6
sg21
I-6
sg22
I-6
sg24
I-6
sg27
I-6
ssI7
(dp31
g2
I-7
sg3
I-7
sg4
I-7
sg5
I-7
sg6
I-7
sg7
I-7
sg8
I-7
sg9
I-7
sg10
I-7
sg11
I-7
sg12
I-7
sg13
I-7
sg14
I-7
sg15
I-7
sg16
I-7
sg17
I-7
sg18
I-7
sg19
I-7
sg20
I-7
sg21
I-7
sg22
I-7
sg24
I-7
sg27
I-7
ssI8
(dp32
g2
I-8
sg3
I-8
sg4
I-8
sg5
I-8
sg6
I-8
sg7
I-8
sg8
I-8
sg9
I-8
sg10
I-8
sg11
I-8
sg12
I-8
sg13
I-8
sg14
I-8
sg15
I-8
sg16
I-8
sg17
I-8
sg18
I-8
sg19
I-8
sg20
I-8
sg21
I-8
sg22
I-8
sg24
I-8
sg27
I-8
ssI9
(dp33
g2
I-9
sg3
I-9
sg4
I-9
sg5
I-9
sg6
I-9
sg7
I-9
sg8
I-9
sg9
I-9
sg10
I-9
sg11
I-9
sg12
I-9
sg13
I-9
sg14
I-9
sg15
I-9
sg16
I-9
sg17
I-9
sg18
I-9
sg19
I-9
sg20
I-9
sg21
I-9
sg22
I-9
sg24
I-9
sg27
I-9
ssI10
(dp34
g2
I-10
sg3
I-10
sg4
I-10
sg5
I-10
sg6
I-10
sg7
I-10
sg8
I-10
sg9
I-10
sg10
I-10
sg11
I-10
sg12
I-10
sg13
I-10
sg14
I-10
sg15
I-10
sg16
I-10
sg17
I-10
sg18
I-10
sg19
I-10
sg20
I-10
sg21
I-10
sg22
I-10
sg24
I-10
sg27
I-10
ssI11
(dp35
g2
I-11
sg3
I-11
sg4
I-11
sg5
I-11
sg6
I-11
sg7
I-11
sg8
I-11
sg9
I-11
sg10
I-11
sg11
I-11
sg12
I-11
sg13
I-11
sg14
I-11
sg15
I-11
sg16
I-11
sg17
I-11
sg18
I-11
sg19
I-11
sg20
I-11
sg21
I-11
sg22
I-11
sg24
I-11
sg27
I-11
ssI12
(dp36
g2
I-12
sg3
I-12
sg4
I-12
sg5
I-12
sg6
I-12
sg7
I-12
sg8
I-12
sg9
I-12
sg10
I-12
sg11
I-12
sg12
I-12
sg13
I-12
sg14
I-12
sg15
I-12
sg16
I-12
sg17
I-12
sg18
I-12
sg19
I-12
sg20
I-12
sg21
I-12
sg22
I-12
sg24
I-12
sg27
I-12
ssI13
(dp37
VID
p38
I37
ssI14
(dp39
VSEMICOLON
p40
I-55
sVPLUS
p41
I-55
sVMINUS
p42
I-55
sVMULTIPLY
p43
I-55
sVDIVIDE
p44
I-55
sVEQ
p45
I-55
sVNE
p46
I-55
sVLT
p47
I-55
sVLE
p48
I-55
sVGT
p49
I-55
sVGE
p50
I-55
sVAND
p51
I-55
sVOR
p52
I-55
sVRPAREN
p53
I-55
sVLBRACE
p54
I-55
ssI15
(dp55
g40
I38
sg41
I39
sg42
I40
sg43
I41
sg44
I42
sg45
I43
sg46
I44
sg47
I45
sg48
I46
sg49
I47
sg50
I48
sg51
I49
sg52
I50
ssI16
(dp56
g2
I-13
sg3
I-13
sg4
I-13
sg5
I-13
sg6
I-13
sg7
I-13
sg8
I-13
sg9
I-13
sg10
I-13
sg11
I-13
sg12
I-13
sg13
I-13
sg14
I-13
sg15
I-13
sg16
I-13
sg17
I-13
sg18
I-13
sg19
I-13
sg20
I-13
sg21
I-13
sg22
I-13
sg24
I-13
sg27
I-13
ssI17
(dp57
VID
p58
I51
ssI18
(dp59
VID
p60
I52
ssI19
(dp61
VID
p62
I53
ssI20
(dp63
VID
p64
I54
ssI21
(dp65
g13
I27
sg14
I28
sg15
I21
sg16
I30
sg17
I31
sg18
I32
sg19
I33
sg20
I34
sg21
I35
sg22
I14
ssI22
(dp66
g13
I27
sg14
I28
sg15
I21
sg16
I30
sg17
I31
sg18
I32
sg19
I33
sg20
I34
sg21
I35
sg22
I14
ssI23
(dp67
g13
I27
sg14
I28
sg15
I21
sg16
I30
sg17
I31
sg18
I32
sg19
I33
sg20
I34
sg21
I35
sg22
I14
ssI24
(dp68
g13
I27
sg14
I28
sg15
I21
sg16
I30
sg17
I31
sg18
I32
sg19
I33
sg20
I34
sg21
I35
sg22
I14
ssI25
(dp69
g13
I27
sg14
I28
sg15
I21
sg16
I30
sg17
I31
sg18
I32
sg19
I33
sg20
I34
sg21
I35
sg22
I14
ssI26
(dp70
VSEMICOLON
p71
I61
sg13
I27
sg14
I28
sg15
I21
sg16
I30
sg17
I31
sg18
I32
sg19
I33
sg20
I34
sg21
I35
sg22
I14
ssI27
(dp72
g13
I27
sg14
I28
sg15
I21
sg16
I30
sg17
I31
sg18
I32
sg19
I33
sg20
I34
sg21
I35
sg22
I14
ssI28
(dp73
g13
I27
sg14
I28
sg15
I21
sg16
I30
sg17
I31
sg18
I32
sg19
I33
sg20
I34
sg21
I35
sg22
I14
ssI29
(dp74
g40
I-48
sg41
I-48
sg42
I-48
sg43
I-48
sg44
I-48
sg45
I-48
sg46
I-48
sg47
I-48
sg48
I-48
sg49
I-48
sg50
I-48
sg51
I-48
sg52
I-48
sg53
I-48
sg54
I-48
ssI30
(dp75
g40
I-49
sg41
I-49
sg42
I-49
sg43
I-49
sg44
I-49
sg45
I-49
sg46
I-49
sg47
I-49
sg48
I-49
sg49
I-49
sg50
I-49
sg51
I-49
sg52
I-49
sg53
I-49
sg54
I-49
ssI31
(dp76
g40
I-50
sg41
I-50
sg42
I-50
sg43
I-50
sg44
I-50
sg45
I-50
sg46
I-50
sg47
I-50
sg48
I-50
sg49
I-50
sg50
I-50
sg51
I-50
sg52
I-50
sg53
I-50
sg54
I-50
ssI32
(dp77
g40
I-51
sg41
I-51
sg42
I-51
sg43
I-51
sg44
I-51
sg45
I-51
sg46
I-51
sg47
I-51
sg48
I-51
sg49
I-51
sg50
I-51
sg51
I-51
sg52
I-51
sg53
I-51
sg54
I-51
ssI33
(dp78
g40
I-52
sg41
I-52
sg42
I-52
sg43
I-52
sg44
I-52
sg45
I-52
sg46
I-52
sg47
I-52
sg48
I-52
sg49
I-52
sg50
I-52
sg51
I-52
sg52
I-52
sg53
I-52
sg54
I-52
ssI34
(dp79
g40
I-53
sg41
I-53
sg42
I-53
sg43
I-53
sg44
I-53
sg45
I-53
sg46
I-53
sg47
I-53
sg48
I-53
sg49
I-53
sg50
I-53
sg51
I-53
sg52
I-53
sg53
I-53
sg54
I-53
ssI35
(dp80
g40
I-54
sg41
I-54
sg42
I-54
sg43
I-54
sg44
I-54
sg45
I-54
sg46
I-54
sg47
I-54
sg48
I-54
sg49
I-54
sg50
I-54
sg51
I-54
sg52
I-54
sg53
I-54
sg54
I-54
ssI36
(dp81
g2
I-2
sg3
I-2
sg4
I-2
sg5
I-2
sg6
I-2
sg7
I-2
sg8
I-2
sg9
I-2
sg10
I-2
sg11
I-2
sg12
I-2
sg13
I-2
sg14
I-2
sg15
I-2
sg16
I-2
sg17
I-2
sg18
I-2
sg19
I-2
sg20
I-2
sg21
I-2
sg22
I-2
sg24
I-2
sg27
I-2
ssI37
(dp82
VASSIGN
p83
I64
ssI38
(dp84
g2
I-32
sg3
I-32
sg4
I-32
sg5
I-32
sg6
I-32
sg7
I-32
sg8
I-32
sg9
I-32
sg10
I-32
sg11
I-32
sg12
I-32
sg13
I-32
sg14
I-32
sg15
I-32
sg16
I-32
sg17
I-32
sg18
I-32
sg19
I-32
sg20
I-32
sg21
I-32
sg22
I-32
sg24
I-32
sg27
I-32
ssI39
(dp85
g13
I27
sg14
I28
sg15
I21
sg16
I30
sg17
I31
sg18
I32
sg19
I33
sg20
I34
sg21
I35
sg22
I14
ssI40
(dp86
g13
I27
sg14
I28
sg15
I21
sg16
I30
sg17
I31
sg18
I32
sg19
I33
sg20
I34
sg21
I35
sg22
I14
ssI41
(dp87
g13
I27
sg14
I28
sg15
I21
sg16
I30
sg17
I31
sg18
I32
sg19
I33
sg20
I34
sg21
I35
sg22
I14
ssI42
(dp88
g13
I27
sg14
I28
sg15
I21
sg16
I30
sg17
I31
sg18
I32
sg19
I33
sg20
I34
sg21
I35
sg22
I14
ssI43
(dp89
g13
I27
sg14
I28
sg15
I21
sg16
I30
sg17
I31
sg18
I32
sg19
I33
sg20
I34
sg21
I35
sg22
I14
ssI44
(dp90
g13
I27
sg14
I28
sg15
I21
sg16
I30
sg17
I31
sg18
I32
sg19
I33
sg20
I34
sg21
I35
sg22
I14
ssI45
(dp91
g13
I27
sg14
I28
sg15
I21
sg16
I30
sg17
I31
sg18
I32
sg19
I33
sg20
I34
sg21
I35
sg22
I14
ssI46
(dp92
g13
I27
sg14
I28
sg15
I21
sg16
I30
sg17
I31
sg18
I32
sg19
I33
sg20
I34
sg21
I35
sg22
I14
ssI47
(dp93
g13
I27
sg14
I28
sg15
I21
sg16
I30
sg17
I31
sg18
I32
sg19
I33
sg20
I34
sg21
I35
sg22
I14
ssI48
(dp94
g13
I27
sg14
I28
sg15
I21
sg16
I30
sg17
I31
sg18
I32
sg19
I33
sg20
I34
sg21
I35
sg22
I14
ssI49
(dp95
g13
I27
sg14
I28
sg15
I21
sg16
I30
sg17
I31
sg18
I32
sg19
I33
sg20
I34
sg21
I35
sg22
I14
ssI50
(dp96
g13
I27
sg14
I28
sg15
I21
sg16
I30
sg17
I31
sg18
I32
sg19
I33
sg20
I34
sg21
I35
sg22
I14
ssI51
(dp97
VASSIGN
p98
I77
ssI52
(dp99
VASSIGN
p100
I78
ssI53
(dp101
VASSIGN
p102
I79
ssI54
(dp103
VLPAREN
p104
I80
ssI55
(dp105
g53
I81
sg41
I39
sg42
I40
sg43
I41
sg44
I42
sg45
I43
sg46
I44
sg47
I45
sg48
I46
sg49
I47
sg50
I48
sg51
I49
sg52
I50
ssI56
(dp106
VSEMICOLON
p107
I82
sg41
I39
sg42
I40
sg43
I41
sg44
I42
sg45
I43
sg46
I44
sg47
I45
sg48
I46
sg49
I47
sg50
I48
sg51
I49
sg52
I50
ssI57
(dp108
VSEMICOLON
p109
I83
sg41
I39
sg42
I40
sg43
I41
sg44
I42
sg45
I43
sg46
I44
sg47
I45
sg48
I46
sg49
I47
sg50
I48
sg51
I49
sg52
I50
ssI58
(dp110
g54
I84
sg41
I39
sg42
I40
sg43
I41
sg44
I42
sg45
I43
sg46
I44
sg47
I45
sg48
I46
sg49
I47
sg50
I48
sg51
I49
sg52
I50
ssI59
(dp111
VLBRACE
p112
I85
sg41
I39
sg42
I40
sg43
I41
sg44
I42
sg45
I43
sg46
I44
sg47
I45
sg48
I46
sg49
I47
sg50
I48
sg51
I49
sg52
I50
ssI60
(dp113
VSEMICOLON
p114
I86
sg41
I39
sg42
I40
sg43
I41
sg44
I42
sg45
I43
sg46
I44
sg47
I45
sg48
I46
sg49
I47
sg50
I48
sg51
I49
sg52
I50
ssI61
(dp115
g2
I-31
sg3
I-31
sg4
I-31
sg5
I-31
sg6
I-31
sg7
I-31
sg8
I-31
sg9
I-31
sg10
I-31
sg11
I-31
sg12
I-31
sg13
I-31
sg14
I-31
sg15
I-31
sg16
I-31
sg17
I-31
sg18
I-31
sg19
I-31
sg20
I-31
sg21
I-31
sg22
I-31
sg24
I-31
sg27
I-31
ssI62
(dp116
g40
I-45
sg41
I-45
sg42
I-45
sg43
I-45
sg44
I-45
sg45
I-45
sg46
I-45
sg47
I-45
sg48
I-45
sg49
I-45
sg50
I-45
sg51
I-45
sg52
I-45
sg53
I-45
sg54
I-45
ssI63
(dp117
g40
I-46
sg41
I39
sg42
I40
sg43
I41
sg44
I42
sg45
I43
sg46
I44
sg47
I45
sg48
I46
sg49
I47
sg50
I48
sg51
I49
sg52
I50
sg53
I-46
sg54
I-46
ssI64
(dp118
g13
I27
sg14
I28
sg15
I21
sg16
I30
sg17
I31
sg18
I32
sg19
I33
sg20
I34
sg21
I35
sg22
I14
ssI65
(dp119
g40
I-33
sg41
I-33
sg42
I-33
sg43
I41
sg44
I42
sg45
I-33
sg46
I-33
sg47
I-33
sg48
I-33
sg49
I-33
sg50
I-33
sg51
I-33
sg52
I-33
sg53
I-33
sg54
I-33
ssI66
(dp120
g40
I-34
sg41
I-34
sg42
I-34
sg43
I41
sg44
I42
sg45
I-34
sg46
I-34
sg47
I-34
sg48
I-34
sg49
I-34
sg50
I-34
sg51
I-34
sg52
I-34
sg53
I-34
sg54
I-34
ssI67
(dp121
g40
I-35
sg41
I-35
sg42
I-35
sg43
I-35
sg44
I-35
sg45
I-35
sg46
I-35
sg47
I-35
sg48
I-35
sg49
I-35
sg50
I-35
sg51
I-35
sg52
I-35
sg53
I-35
sg54
I-35
ssI68
(dp122
g40
I-36
sg41
I-36
sg42
I-36
sg43
I-36
sg44
I-36
sg45
I-36
sg46
I-36
sg47
I-36
sg48
I-36
sg49
I-36
sg50
I-36
sg51
I-36
sg52
I-36
sg53
I-36
sg54
I-36
ssI69
(dp123
g40
I-37
sg41
I39
sg42
I40
sg43
I41
sg44
I42
sg45
I-37
sg46
I-37
sg47
I45
sg48
I46
sg49
I47
sg50
I48
sg51
I-37
sg52
I-37
sg53
I-37
sg54
I-37
ssI70
(dp124
g40
I-38
sg41
I39
sg42
I40
sg43
I41
sg44
I42
sg45
I-38
sg46
I-38
sg47
I45
sg48
I46
sg49
I47
sg50
I48
sg51
I-38
sg52
I-38
sg53
I-38
sg54
I-38
ssI71
(dp125
g40
I-39
sg41
I39
sg42
I40
sg43
I41
sg44
I42
sg45
I-39
sg46
I-39
sg47
I-39
sg48
I-39
sg49
I-39
sg50
I-39
sg51
I-39
sg52
I-39
sg53
I-39
sg54
I-39
ssI72
(dp126
g40
I-40
sg41
I39
sg42
I40
sg43
I41
sg44
I42
sg45
I-40
sg46
I-40
sg47
I-40
sg48
I-40
sg49
I-40
sg50
I-40
sg51
I-40
sg52
I-40
sg53
I-40
sg54
I-40
ssI73
(dp127
g40
I-41
sg41
I39
sg42
I40
sg43
I41
sg44
I42
sg45
I-41
sg46
I-41
sg47
I-41
sg48
I-41
sg49
I-41
sg50
I-41
sg51
I-41
sg52
I-41
sg53
I-41
sg54
I-41
ssI74
(dp128
g40
I-42
sg41
I39
sg42
I40
sg43
I41
sg44
I42
sg45
I-42
sg46
I-42
sg47
I-42
sg48
I-42
sg49
I-42
sg50
I-42
sg51
I-42
sg52
I-42
sg53
I-42
sg54
I-42
ssI75
(dp129
g40
I-43
sg41
I39
sg42
I40
sg43
I41
sg44
I42
sg45
I43
sg46
I44
sg47
I45
sg48
I46
sg49
I47
sg50
I48
sg51
I-43
sg52
I-43
sg53
I-43
sg54
I-43
ssI76
(dp130
g40
I-44
sg41
I39
sg42
I40
sg43
I41
sg44
I42
sg45
I43
sg46
I44
sg47
I45
sg48
I46
sg49
I47
sg50
I48
sg51
I49
sg52
I-44
sg53
I-44
sg54
I-44
ssI77
(dp131
g13
I27
sg14
I28
sg15
I21
sg16
I30
sg17
I31
sg18
I32
sg19
I33
sg20
I34
sg21
I35
sg22
I14
ssI78
(dp132
g13
I27
sg14
I28
sg15
I21
sg16
I30
sg17
I31
sg18
I32
sg19
I33
sg20
I34
sg21
I35
sg22
I14
ssI79
(dp133
g13
I27
sg14
I28
sg15
I21
sg16
I30
sg17
I31
sg18
I32
sg19
I33
sg20
I34
sg21
I35
sg22
I14
ssI80
(dp134
VRPAREN
p135
I-56
sVID
p136
I91
ssI81
(dp137
g40
I-47
sg41
I-47
sg42
I-47
sg43
I-47
sg44
I-47
sg45
I-47
sg46
I-47
sg47
I-47
sg48
I-47
sg49
I-47
sg50
I-47
sg51
I-47
sg52
I-47
sg53
I-47
sg54
I-47
ssI82
(dp138
g2
I-24
sg3
I-24
sg4
I-24
sg5
I-24
sg6
I-24
sg7
I-24
sg8
I-24
sg9
I-24
sg10
I-24
sg11
I-24
sg12
I-24
sg13
I-24
sg14
I-24
sg15
I-24
sg16
I-24
sg17
I-24
sg18
I-24
sg19
I-24
sg20
I-24
sg21
I-24
sg22
I-24
sg24
I-24
sg27
I-24
ssI83
(dp139
g2
I-25
sg3
I-25
sg4
I-25
sg5
I-25
sg6
I-25
sg7
I-25
sg8
I-25
sg9
I-25
sg10
I-25
sg11
I-25
sg12
I-25
sg13
I-25
sg14
I-25
sg15
I-25
sg16
I-25
sg17
I-25
sg18
I-25
sg19
I-25
sg20
I-25
sg21
I-25
sg22
I-25
sg24
I-25
sg27
I-25
ssI84
(dp140
g2
I13
sg3
I17
sg4
I18
sg5
I19
sg6
I20
sg7
I22
sg8
I23
sg9
I24
sg10
I25
sg11
I26
sg12
I16
sg13
I27
sg14
I28
sg15
I21
sg16
I30
sg17
I31
sg18
I32
sg19
I33
sg20
I34
sg21
I35
sg22
I14
ssI85
(dp141
g2
I13
sg3
I17
sg4
I18
sg5
I19
sg6
I20
sg7
I22
sg8
I23
sg9
I24
sg10
I25
sg11
I26
sg12
I16
sg13
I27
sg14
I28
sg15
I21
sg16
I30
sg17
I31
sg18
I32
sg19
I33
sg20
I34
sg21
I35
sg22
I14
ssI86
(dp142
g2
I-30
sg3
I-30
sg4
I-30
sg5
I-30
sg6
I-30
sg7
I-30
sg8
I-30
sg9
I-30
sg10
I-30
sg11
I-30
sg12
I-30
sg13
I-30
sg14
I-30
sg15
I-30
sg16
I-30
sg17
I-30
sg18
I-30
sg19
I-30
sg20
I-30
sg21
I-30
sg22
I-30
sg24
I-30
sg27
I-30
ssI87
(dp143
VSEMICOLON
p144
I98
sg41
I39
sg42
I40
sg43
I41
sg44
I42
sg45
I43
sg46
I44
sg47
I45
sg48
I46
sg49
I47
sg50
I48
sg51
I49
sg52
I50
ssI88
(dp145
VSEMICOLON
p146
I99
sg41
I39
sg42
I40
sg43
I41
sg44
I42
sg45
I43
sg46
I44
sg47
I45
sg48
I46
sg49
I47
sg50
I48
sg51
I49
sg52
I50
ssI89
(dp147
VSEMICOLON
p148
I100
sg41
I39
sg42
I40
sg43
I41
sg44
I42
sg45
I43
sg46
I44
sg47
I45
sg48
I46
sg49
I47
sg50
I48
sg51
I49
sg52
I50
ssI90
(dp149
VSEMICOLON
p150
I101
sg41
I39
sg42
I40
sg43
I41
sg44
I42
sg45
I43
sg46
I44
sg47
I45
sg48
I46
sg49
I47
sg50
I48
sg51
I49
sg52
I50
ssI91
(dp151
VCOMMA
p152
I-23
sg135
I-23
ssI92
(dp153
g135
I102
ssI93
(dp154
g135
I-19
sg152
I103
ssI94
(dp155
g135
I-20
ssI95
(dp156
g152
I-22
sg135
I-22
ssI96
(dp157
g27
I104
sg2
I13
sg3
I17
sg4
I18
sg5
I19
sg6
I20
sg7
I22
sg8
I23
sg9
I24
sg10
I25
sg11
I26
sg12
I16
sg13
I27
sg14
I28
sg15
I21
sg16
I30
sg17
I31
sg18
I32
sg19
I33
sg20
I34
sg21
I35
sg22
I14
ssI97
(dp158
VRBRACE
p159
I105
sg2
I13
sg3
I17
sg4
I18
sg5
I19
sg6
I20
sg7
I22
sg8
I23
sg9
I24
sg10
I25
sg11
I26
sg12
I16
sg13
I27
sg14
I28
sg15
I21
sg16
I30
sg17
I31
sg18
I32
sg19
I33
sg20
I34
sg21
I35
sg22
I14
ssI98
(dp160
g2
I-14
sg3
I-14
sg4
I-14
sg5
I-14
sg6
I-14
sg7
I-14
sg8
I-14
sg9
I-14
sg10
I-14
sg11
I-14
sg12
I-14
sg13
I-14
sg14
I-14
sg15
I-14
sg16
I-14
sg17
I-14
sg18
I-14
sg19
I-14
sg20
I-14
sg21
I-14
sg22
I-14
sg24
I-14
sg27
I-14
ssI99
(dp161
g2
I-15
sg3
I-15
sg4
I-15
sg5
I-15
sg6
I-15
sg7
I-15
sg8
I-15
sg9
I-15
sg10
I-15
sg11
I-15
sg12
I-15
sg13
I-15
sg14
I-15
sg15
I-15
sg16
I-15
sg17
I-15
sg18
I-15
sg19
I-15
sg20
I-15
sg21
I-15
sg22
I-15
sg24
I-15
sg27
I-15
ssI100
(dp162
g2
I-16
sg3
I-16
sg4
I-16
sg5
I-16
sg6
I-16
sg7
I-16
sg8
I-16
sg9
I-16
sg10
I-16
sg11
I-16
sg12
I-16
sg13
I-16
sg14
I-16
sg15
I-16
sg16
I-16
sg17
I-16
sg18
I-16
sg19
I-16
sg20
I-16
sg21
I-16
sg22
I-16
sg24
I-16
sg27
I-16
ssI101
(dp163
g2
I-17
sg3
I-17
sg4
I-17
sg5
I-17
sg6
I-17
sg7
I-17
sg8
I-17
sg9
I-17
sg10
I-17
sg11
I-17
sg12
I-17
sg13
I-17
sg14
I-17
sg15
I-17
sg16
I-17
sg17
I-17
sg18
I-17
sg19
I-17
sg20
I-17
sg21
I-17
sg22
I-17
sg24
I-17
sg27
I-17
ssI102
(dp164
VLBRACE
p165
I106
ssI103
(dp166
g136
I91
ssI104
(dp167
VELSE
p168
I109
sg2
I-56
sg3
I-56
sg4
I-56
sg5
I-56
sg6
I-56
sg7
I-56
sg8
I-56
sg9
I-56
sg10
I-56
sg11
I-56
sg12
I-56
sg13
I-56
sg14
I-56
sg15
I-56
sg16
I-56
sg17
I-56
sg18
I-56
sg19
I-56
sg20
I-56
sg21
I-56
sg22
I-56
sg24
I-56
sg27
I-56
ssI105
(dp169
g2
I-29
sg3
I-29
sg4
I-29
sg5
I-29
sg6
I-29
sg7
I-29
sg8
I-29
sg9
I-29
sg10
I-29
sg11
I-29
sg12
I-29
sg13
I-29
sg14
I-29
sg15
I-29
sg16
I-29
sg17
I-29
sg18
I-29
sg19
I-29
sg20
I-29
sg21
I-29
sg22
I-29
sg24
I-29
sg27
I-29
ssI106
(dp170
g2
I13
sg3
I17
sg4
I18
sg5
I19
sg6
I20
sg7
I22
sg8
I23
sg9
I24
sg10
I25
sg11
I26
sg12
I16
sg13
I27
sg14
I28
sg15
I21
sg16
I30
sg17
I31
sg18
I32
sg19
I33
sg20
I34
sg21
I35
sg22
I14
ssI107
(dp171
g152
I-21
sg135
I-21
ssI108
(dp172
g2
I-26
sg3
I-26
sg4
I-26
sg5
I-26
sg6
I-26
sg7
I-26
sg8
I-26
sg9
I-26
sg10
I-26
sg11
I-26
sg12
I-26
sg13
I-26
sg14
I-26
sg15
I-26
sg16
I-26
sg17
I-26
sg18
I-26
sg19
I-26
sg20
I-26
sg21
I-26
sg22
I-26
sg24
I-26
sg27
I-26
ssI109
(dp173
VLBRACE
p174
I112
ssI110
(dp175
g2
I-28
sg3
I-28
sg4
I-28
sg5
I-28
sg6
I-28
sg7
I-28
sg8
I-28
sg9
I-28
sg10
I-28
sg11
I-28
sg12
I-28
sg13
I-28
sg14
I-28
sg15
I-28
sg16
I-28
sg17
I-28
sg18
I-28
sg19
I-28
sg20
I-28
sg21
I-28
sg22
I-28
sg24
I-28
sg27
I-28
ssI111
(dp176
VRBRACE
p177
I113
sg2
I13
sg3
I17
sg4
I18
sg5
I19
sg6
I20
sg7
I22
sg8
I23
sg9
I24
sg10
I25
sg11
I26
sg12
I16
sg13
I27
sg14
I28
sg15
I21
sg16
I30
sg17
I31
sg18
I32
sg19
I33
sg20
I34
sg21
I35
sg22
I14
ssI112
(dp178
g2
I13
sg3
I17
sg4
I18
sg5
I19
sg6
I20
sg7
I22
sg8
I23
sg9
I24
sg10
I25
sg11
I26
sg12
I16
sg13
I27
sg14
I28
sg15
I21
sg16
I30
sg17
I31
sg18
I32
sg19
I33
sg20
I34
sg21
I35
sg22
I14
ssI113
(dp179
g2
I-18
sg3
I-18
sg4
I-18
sg5
I-18
sg6
I-18
sg7
I-18
sg8
I-18
sg9
I-18
sg10
I-18
sg11
I-18
sg12
I-18
sg13
I-18
sg14
I-18
sg15
I-18
sg16
I-18
sg17
I-18
sg18
I-18
sg19
I-18
sg20
I-18
sg21
I-18
sg22
I-18
sg24
I-18
sg27
I-18
ssI114
(dp180
VRBRACE
p181
I115
sg2
I13
sg3
I17
sg4
I18
sg5
I19
sg6
I20
sg7
I22
sg8
I23
sg9
I24
sg10
I25
sg11
I26
sg12
I16
sg13
I27
sg14
I28
sg15
I21
sg16
I30
sg17
I31
sg18
I32
sg19
I33
sg20
I34
sg21
I35
sg22
I14
ssI115
(dp182
g2
I-27
sg3
I-27
sg4
I-27
sg5
I-27
sg6
I-27
sg7
I-27
sg8
I-27
sg9
I-27
sg10
I-27
sg11
I-27
sg12
I-27
sg13
I-27
sg14
I-27
sg15
I-27
sg16
I-27
sg17
I-27
sg18
I-27
sg19
I-27
sg20
I-27
sg21
I-27
sg22
I-27
sg24
I-27
sg27
I-27
ss.(dp0
I0
(dp1
Vprogram
p2
I1
sVstatements
p3
I2
sVstatement
p4
I3
sVvariable_decl_stmt
p5
I4
sVfunction_decl_stmt
p6
I5
sVshow_stmt
p7
I6
sVprint_stmt
p8
I7
sVif_stmt
p9
I8
sVwhile_stmt
p10
I9
sVreturn_stmt
p11
I10
sVexpression_stmt
p12
I11
sVempty_stmt
p13
I12
sVexpression
p14
I15
sVfactor
p15
I29
ssI1
(dp16
sI2
(dp17
g4
I36
sg5
I4
sg6
I5
sg7
I6
sg8
I7
sg9
I8
sg10
I9
sg11
I10
sg12
I11
sg13
I12
sg14
I15
sg15
I29
ssI3
(dp18
sI4
(dp19
sI5
(dp20
sI6
(dp21
sI7
(dp22
sI8
(dp23
sI9
(dp24
sI10
(dp25
sI11
(dp26
sI12
(dp27
sI13
(dp28
sI14
(dp29
sI15
(dp30
sI16
(dp31
sI17
(dp32
sI18
(dp33
sI19
(dp34
sI20
(dp35
sI21
(dp36
Vexpression
p37
I55
sg15
I29
ssI22
(dp38
Vexpression
p39
I56
sg15
I29
ssI23
(dp40
Vexpression
p41
I57
sg15
I29
ssI24
(dp42
Vexpression
p43
I58
sg15
I29
ssI25
(dp44
Vexpression
p45
I59
sg15
I29
ssI26
(dp46
Vexpression
p47
I60
sg15
I29
ssI27
(dp48
Vexpression
p49
I62
sg15
I29
ssI28
(dp50
Vexpression
p51
I63
sg15
I29
ssI29
(dp52
sI30
(dp53
sI31
(dp54
sI32
(dp55
sI33
(dp56
sI34
(dp57
sI35
(dp58
sI36
(dp59
sI37
(dp60
sI38
(dp61
sI39
(dp62
Vexpression
p63
I65
sg15
I29
ssI40
(dp64
Vexpression
p65
I66
sg15
I29
ssI41
(dp66
Vexpression
p67
I67
sg15
I29
ssI42
(dp68
Vexpression
p69
I68
sg15
I29
ssI43
(dp70
Vexpression
p71
I69
sg15
I29
ssI44
(dp72
Vexpression
p73
I70
sg15
I29
ssI45
(dp74
Vexpression
p75
I71
sg15
I29
ssI46
(dp76
Vexpression
p77
I72
sg15
I29
ssI47
(dp78
Vexpression
p79
I73
sg15
I29
ssI48
(dp80
Vexpression
p81
I74
sg15
I29
ssI49
(dp82
Vexpression
p83
I75
sg15
I29
ssI50
(dp84
Vexpression
p85
I76
sg15
I29
ssI51
(dp86
sI52
(dp87
sI53
(dp88
sI54
(dp89
sI55
(dp90
sI56
(dp91
sI57
(dp92
sI58
(dp93
sI59
(dp94
sI60
(dp95
sI61
(dp96
sI62
(dp97
sI63
(dp98
sI64
(dp99
g14
I87
sg15
I29
ssI65
(dp100
sI66
(dp101
sI67
(dp102
sI68
(dp103
sI69
(dp104
sI70
(dp105
sI71
(dp106
sI72
(dp107
sI73
(dp108
sI74
(dp109
sI75
(dp110
sI76
(dp111
sI77
(dp112
Vexpression
p113
I88
sg15
I29
ssI78
(dp114
Vexpression
p115
I89
sg15
I29
ssI79
(dp116
Vexpression
p117
I90
sg15
I29
ssI80
(dp118
Vparams
p119
I92
sVparam_list
p120
I93
sVempty
p121
I94
sVparam
p122
I95
ssI81
(dp123
sI82
(dp124
sI83
(dp125
sI84
(dp126
g43
I15
sVstatements
p127
I96
sg4
I3
sg5
I4
sg6
I5
sg7
I6
sg8
I7
sg9
I8
sg10
I9
sg11
I10
sg12
I11
sg13
I12
sg15
I29
ssI85
(dp128
g45
I15
sVstatements
p129
I97
sg4
I3
sg5
I4
sg6
I5
sg7
I6
sg8
I7
sg9
I8
sg10
I9
sg11
I10
sg12
I11
sg13
I12
sg15
I29
ssI86
(dp130
sI87
(dp131
sI88
(dp132
sI89
(dp133
sI90
(dp134
sI91
(dp135
sI92
(dp136
sI93
(dp137
sI94
(dp138
sI95
(dp139
sI96
(dp140
g43
I15
sg4
I36
sg5
I4
sg6
I5
sg7
I6
sg8
I7
sg9
I8
sg10
I9
sg11
I10
sg12
I11
sg13
I12
sg15
I29
ssI97
(dp141
g45
I15
sg4
I36
sg5
I4
sg6
I5
sg7
I6
sg8
I7
sg9
I8
sg10
I9
sg11
I10
sg12
I11
sg13
I12
sg15
I29
ssI98
(dp142
sI99
(dp143
sI100
(dp144
sI101
(dp145
sI102
(dp146
sI103
(dp147
g122
I107
ssI104
(dp148
Velse_opt
p149
I108
sVempty
p150
I110
ssI105
(dp151
sI106
(dp152
Vstatements
p153
I111
sg4
I3
sg5
I4
sg6
I5
sg7
I6
sg8
I7
sg9
I8
sg10
I9
sg11
I10
sg12
I11
sg13
I12
sg14
I15
sg15
I29
ssI107
(dp154
sI108
(dp155
sI109
(dp156
sI110
(dp157
sI111
(dp158
g4
I36
sg5
I4
sg6
I5
sg7
I6
sg8
I7
sg9
I8
sg10
I9
sg11
I10
sg12
I11
sg13
I12
sg14
I15
sg15
I29
ssI112
(dp159
Vstatements
p160
I114
sg4
I3
sg5
I4
sg6
I5
sg7
I6
sg8
I7
sg9
I8
sg10
I9
sg11
I10
sg12
I11
sg13
I12
sg14
I15
sg15
I29
ssI113
(dp161
sI114
(dp162
g4
I36
sg5
I4
sg6
I5
sg7
I6
sg8
I7
sg9
I8
sg10
I9
sg11
I10
sg12
I11
sg13
I12
sg14
I15
sg15
I29
ssI115
(dp163
s.(lp0
(VS' -> program
p1
VS'
p2
I1
NNNtp3
a(Vprogram -> statements
p4
Vprogram
p5
I1
Vp_program
p6
Vparser.py
p7
I17
tp8
a(Vstatements -> statements statement
p9
Vstatements
p10
I2
Vp_statements_list
p11
Vparser.py
p12
I21
tp13
a(Vstatements -> statement
p14
Vstatements
p15
I1
Vp_statements_single
p16
Vparser.py
p17
I28
tp18
a(Vstatement -> variable_decl_stmt
p19
Vstatement
p20
I1
Vp_statement
p21
Vparser.py
p22
I33
tp23
a(Vstatement -> function_decl_stmt
p24
g20
I1
g21
Vparser.py
p25
I34
tp26
a(Vstatement -> show_stmt
p27
g20
I1
g21
Vparser.py
p28
I35
tp29
a(Vstatement -> print_stmt
p30
g20
I1
g21
Vparser.py
p31
I36
tp32
a(Vstatement -> if_stmt
p33
g20
I1
g21
Vparser.py
p34
I37
tp35
a(Vstatement -> while_stmt
p36
g20
I1
g21
Vparser.py
p37
I38
tp38
a(Vstatement -> return_stmt
p39
g20
I1
g21
Vparser.py
p40
I39
tp41
a(Vstatement -> expression_stmt
p42
g20
I1
g21
Vparser.py
p43
I40
tp44
a(Vstatement -> empty_stmt
p45
g20
I1
g21
Vparser.py
p46
I41
tp47
a(Vempty_stmt -> SEMICOLON
p48
Vempty_stmt
p49
I1
Vp_empty_stmt
p50
Vparser.py
p51
I45
tp52
a(Vvariable_decl_stmt -> LET ID ASSIGN expression SEMICOLON
p53
Vvariable_decl_stmt
p54
I5
Vp_variable_decl_stmt
p55
Vparser.py
p56
I50
tp57
a(Vvariable_decl_stmt -> TAKE ID ASSIGN expression SEMICOLON
p58
g54
I5
g55
Vparser.py
p59
I51
tp60
a(Vvariable_decl_stmt -> HOLD ID ASSIGN expression SEMICOLON
p61
g54
I5
g55
Vparser.py
p62
I52
tp63
a(Vvariable_decl_stmt -> PUT ID ASSIGN expression SEMICOLON
p64
g54
I5
g55
Vparser.py
p65
I53
tp66
a(Vfunction_decl_stmt -> FUN ID LPAREN params RPAREN LBRACE statements RBRACE
p67
Vfunction_decl_stmt
p68
I8
Vp_function_decl_stmt
p69
Vparser.py
p70
I58
tp71
a(Vparams -> param_list
p72
Vparams
p73
I1
Vp_params_opt
p74
Vparser.py
p75
I62
tp76
a(Vparams -> empty
p77
g73
I1
g74
Vparser.py
p78
I63
tp79
a(Vparam_list -> param_list COMMA param
p80
Vparam_list
p81
I3
Vp_param_list_multi
p82
Vparser.py
p83
I67
tp84
a(Vparam_list -> param
p85
Vparam_list
p86
I1
Vp_param_list_single
p87
Vparser.py
p88
I71
tp89
a(Vparam -> ID
p90
Vparam
p91
I1
Vp_param
p92
Vparser.py
p93
I75
tp94
a(Vshow_stmt -> SHOW expression SEMICOLON
p95
Vshow_stmt
p96
I3
Vp_show_stmt
p97
Vparser.py
p98
I80
tp99
a(Vprint_stmt -> PRINT expression SEMICOLON
p100
Vprint_stmt
p101
I3
Vp_print_stmt
p102
Vparser.py
p103
I84
tp104
a(Vif_stmt -> IF expression LBRACE statements RBRACE else_opt
p105
Vif_stmt
p106
I6
Vp_if_stmt
p107
Vparser.py
p108
I89
tp109
a(Velse_opt -> ELSE LBRACE statements RBRACE
p110
Velse_opt
p111
I4
Vp_else_opt
p112
Vparser.py
p113
I93
tp114
a(Velse_opt -> empty
p115
g111
I1
g112
Vparser.py
p116
I94
tp117
a(Vwhile_stmt -> WHILE expression LBRACE statements RBRACE
p118
Vwhile_stmt
p119
I5
Vp_while_stmt
p120
Vparser.py
p121
I101
tp122
a(Vreturn_stmt -> RETURN expression SEMICOLON
p123
Vreturn_stmt
p124
I3
Vp_return_stmt
p125
Vparser.py
p126
I105
tp127
a(Vreturn_stmt -> RETURN SEMICOLON
p128
g124
I2
g125
Vparser.py
p129
I106
tp130
a(Vexpression_stmt -> expression SEMICOLON
p131
Vexpression_stmt
p132
I2
Vp_expression_stmt
p133
Vparser.py
p134
I114
tp135
a(Vexpression -> expression PLUS expression
p136
Vexpression
p137
I3
Vp_expression_binop
p138
Vparser.py
p139
I131
tp140
a(Vexpression -> expression MINUS expression
p141
g137
I3
g138
Vparser.py
p142
I132
tp143
a(Vexpression -> expression MULTIPLY expression
p144
g137
I3
g138
Vparser.py
p145
I133
tp146
a(Vexpression -> expression DIVIDE expression
p147
g137
I3
g138
Vparser.py
p148
I134
tp149
a(Vexpression -> expression EQ expression
p150
g137
I3
g138
Vparser.py
p151
I135
tp152
a(Vexpression -> expression NE expression
p153
g137
I3
g138
Vparser.py
p154
I136
tp155
a(Vexpression -> expression LT expression
p156
g137
I3
g138
Vparser.py
p157
I137
tp158
a(Vexpression -> expression LE expression
p159
g137
I3
g138
Vparser.py
p160
I138
tp161
a(Vexpression -> expression GT expression
p162
g137
I3
g138
Vparser.py
p163
I139
tp164
a(Vexpression -> expression GE expression
p165
g137
I3
g138
Vparser.py
p166
I140
tp167
a(Vexpression -> expression AND expression
p168
g137
I3
g138
Vparser.py
p169
I141
tp170
a(Vexpression -> expression OR expression
p171
g137
I3
g138
Vparser.py
p172
I142
tp173
a(Vexpression -> MINUS expression
p174
Vexpression
p175
I2
Vp_expression_unary_minus
p176
Vparser.py
p177
I146
tp178
a(Vexpression -> NOT expression
p179
Vexpression
p180
I2
Vp_expression_not
p181
Vparser.py
p182
I150
tp183
a(Vexpression -> LPAREN expression RPAREN
p184
Vexpression
p185
I3
Vp_expression_group
p186
Vparser.py
p187
I154
tp188
a(Vexpression -> factor
p189
Vexpression
p190
I1
Vp_expression_factor
p191
Vparser.py
p192
I158
tp193
a(Vfactor -> INTEGER
p194
Vfactor
p195
I1
Vp_factor_literal
p196
Vparser.py
p197
I162
tp198
a(Vfactor -> FLOAT
p199
g195
I1
g196
Vparser.py
p200
I163
tp201
a(Vfactor -> STRING
p202
g195
I1
g196
Vparser.py
p203
I164
tp204
a(Vfactor -> TRUE
p205
g195
I1
g196
Vparser.py
p206
I165
tp207
a(Vfactor -> FALSE
p208
g195
I1
g196
Vparser.py
p209
I166
tp210
a(Vfactor -> NULL
p211
g195
I1
g196
Vparser.py
p212
I167
tp213
a(Vfactor -> ID
p214
Vfactor
p215
I1
Vp_factor_identifier
p216
Vparser.py
p217
I171
tp218
a(Vempty -> <empty>
p219
Vempty
p220
I0
Vp_empty
p221
Vparser.py
p222
I175
tp223
a.