V3.10
p0
.VLALR
p0
.VleftORleftANDnonassocEQNELTLEGTGEleftPLUSMINUSleftMULTIPLYDIVIDEMODULOrightNOTISrightUMINUSleftLPARENRPARENLBRACKETRBRACKETAMPERSAND AND APPEND ARR ASSIGN BOX COLON COMMA CONCAT CURRENT DAY DIFF DIV DIVIDE DOT ELSE EQ FALSE FLOAT FUN GE GT HOLD HOUR ID IF INTEGER INTERPOL_END INTERPOL_START IS KEY LBRACE LBRACKET LE LEN LET LIST LPAREN LT MAP MINUS MINUTE MOD MODULO MONTH MULTIPLY NE NOT NOW NULL OR PLUS PRINT PROD PUT RBRACE RBRACKET READ REF REMOVE RETURN RPAREN SECOND SHOW SLICE STORE STRING_END STRING_LITERAL STRING_START SUM TAKE TEXT TRUE VALUE WHEN WHILE YEARprogram : statementsstatements : statements statement\u000a                 | statements block_stmtstatements : statement\u000a                 | block_stmtstatements : emptyblock_stmt : LBRACE statements RBRACEstatement : variable_decl\u000a                 | function_decl\u000a                 | show_stmt\u000a                 | print_stmt\u000a                 | read_stmt\u000a                 | if_stmt\u000a                 | when_stmt\u000a                 | while_stmt\u000a                 | return_stmt\u000a                 | expression_stmtvariable_decl : LET ID ASSIGN expression\u000a                     | TAKE ID ASSIGN expression\u000a                     | HOLD ID ASSIGN expression\u000a                     | PUT ID ASSIGN expression\u000a                     | SUM ID ASSIGN expression\u000a                     | DIFF ID ASSIGN expression\u000a                     | PROD ID ASSIGN expression\u000a                     | DIV ID ASSIGN expression\u000a                     | MOD ID ASSIGN expression\u000a                     | TEXT ID ASSIGN expression\u000a                     | CONCAT ID ASSIGN expression\u000a                     | SLICE ID ASSIGN expression\u000a                     | LEN ID ASSIGN expression\u000a                     | LIST ID ASSIGN expression\u000a                     | ARR ID ASSIGN expression\u000a                     | APPEND ID ASSIGN expression\u000a                     | REMOVE ID ASSIGN expression\u000a                     | MAP ID ASSIGN expression\u000a                     | KEY ID ASSIGN expression\u000a                     | VALUE ID ASSIGN expression\u000a                     | CURRENT ID ASSIGN expression\u000a                     | NOW ID ASSIGN expression\u000a                     | YEAR ID ASSIGN expression\u000a                     | MONTH ID ASSIGN expression\u000a                     | DAY ID ASSIGN expression\u000a                     | HOUR ID ASSIGN expression\u000a                     | MINUTE ID ASSIGN expression\u000a                     | SECOND ID ASSIGN expression\u000a                     | STORE ID ASSIGN expression\u000a                     | BOX ID ASSIGN expression\u000a                     | REF ID ASSIGN expressionfunction_decl : FUN ID LPAREN params_opt RPAREN block_stmtparams_opt : param_list\u000a                 | emptyparam_list : param_list COMMA paramparam_list : paramparam : IDshow_stmt : SHOW expression opt_colon_expression\u000a                | SHOW expressionprint_stmt : PRINT expression opt_colon_expression\u000a                 | PRINT expressionread_stmt : READ ID opt_assign_expression\u000a                | READ IDopt_colon_expression : COLON expressionopt_assign_expression : ASSIGN expressionif_stmt : IF expression block_stmt else_optwhen_stmt : WHEN expression IS expression block_stmt else_optelse_opt : ELSE block_stmt\u000a               | ELSE if_stmt\u000a               | ELSE when_stmt\u000a               | emptywhile_stmt : WHILE expression block_stmtreturn_stmt : RETURN expression\u000a                  | RETURNexpression_stmt : expressionexpression : ID ASSIGN expressionexpression : expression PLUS expression\u000a                 | expression MINUS expression\u000a                 | expression MULTIPLY expression\u000a                 | expression DIVIDE expression\u000a                 | expression MODULO expression\u000a                 | expression EQ expression\u000a                 | expression NE expression\u000a                 | expression LT expression\u000a                 | expression LE expression\u000a                 | expression GT expression\u000a                 | expression GE expression\u000a                 | expression AND expression\u000a                 | expression OR expressionexpression : expression IS expressionexpression : MINUS expression %prec UMINUSexpression : NOT expressionexpression : LPAREN expression RPARENexpression : literal\u000a                 | ID\u000a                 | function_call\u000a                 | interpolated_string\u000a                 | list_expression\u000a                 | map_expression\u000a                 | member_expression\u000a                 | index_expression\u000a                 | slice_expressionmember_expression : expression DOT IDmember_expression : expression DOT ID LPAREN args_opt RPARENindex_expression : expression LBRACKET expression RBRACKETslice_expression : expression LBRACKET expression COLON expression RBRACKETlist_expression : LBRACKET list_items RBRACKETlist_items : list_items COMMA expression\u000a                 | expression\u000a                 | emptymap_expression : LBRACE map_items RBRACEmap_items : map_items COMMA map_item\u000a                | map_item\u000a                | emptymap_item : expression COLON expressionliteral : INTEGER\u000a               | FLOAT\u000a               | TRUE\u000a               | FALSE\u000a               | NULL\u000a               | STRING_LITERALfunction_call : ID LPAREN args_opt RPARENargs_opt : arg_list\u000a               | emptyarg_list : arg_list COMMA expressionarg_list : expressioninterpolated_string : STRING_START string_contents STRING_ENDstring_contents : string_contents string_partstring_contents : string_partstring_contents : emptystring_part : STRING_LITERAL\u000a                  | INTERPOL_START expression INTERPOL_ENDempty :
p0
.(dp0
I0
(dp1
VLBRACE
p2
I16
sVLET
p3
I17
sVTAKE
p4
I20
sVHOLD
p5
I21
sVPUT
p6
I22
sVSUM
p7
I23
sVDIFF
p8
I24
sVPROD
p9
I25
sVDIV
p10
I26
sVMOD
p11
I27
sVTEXT
p12
I28
sVCONCAT
p13
I29
sVSLICE
p14
I30
sVLEN
p15
I31
sVLIST
p16
I32
sVARR
p17
I33
sVAPPEND
p18
I34
sVREMOVE
p19
I35
sVMAP
p20
I36
sVKEY
p21
I37
sVVALUE
p22
I38
sVCURRENT
p23
I39
sVNOW
p24
I40
sVYEAR
p25
I41
sVMONTH
p26
I42
sVDAY
p27
I43
sVHOUR
p28
I44
sVMINUTE
p29
I45
sVSECOND
p30
I46
sVSTORE
p31
I47
sVBOX
p32
I48
sVREF
p33
I49
sVFUN
p34
I50
sVSHOW
p35
I52
sVPRINT
p36
I53
sVREAD
p37
I54
sVIF
p38
I55
sVWHEN
p39
I56
sVWHILE
p40
I57
sVRETURN
p41
I58
sVID
p42
I18
sVMINUS
p43
I59
sVNOT
p44
I60
sVLPAREN
p45
I51
sVINTEGER
p46
I69
sVFLOAT
p47
I70
sVTRUE
p48
I71
sVFALSE
p49
I72
sVNULL
p50
I73
sVSTRING_LITERAL
p51
I74
sVSTRING_START
p52
I75
sVLBRACKET
p53
I76
sV$end
p54
I-130
ssI1
(dp55
g54
I0
ssI2
(dp56
g54
I-1
sg2
I16
sg3
I17
sg4
I20
sg5
I21
sg6
I22
sg7
I23
sg8
I24
sg9
I25
sg10
I26
sg11
I27
sg12
I28
sg13
I29
sg14
I30
sg15
I31
sg16
I32
sg17
I33
sg18
I34
sg19
I35
sg20
I36
sg21
I37
sg22
I38
sg23
I39
sg24
I40
sg25
I41
sg26
I42
sg27
I43
sg28
I44
sg29
I45
sg30
I46
sg31
I47
sg32
I48
sg33
I49
sg34
I50
sg35
I52
sg36
I53
sg37
I54
sg38
I55
sg39
I56
sg40
I57
sg41
I58
sg42
I18
sg43
I59
sg44
I60
sg45
I51
sg46
I69
sg47
I70
sg48
I71
sg49
I72
sg50
I73
sg51
I74
sg52
I75
sg53
I76
ssI3
(dp57
g2
I-4
sg3
I-4
sg4
I-4
sg5
I-4
sg6
I-4
sg7
I-4
sg8
I-4
sg9
I-4
sg10
I-4
sg11
I-4
sg12
I-4
sg13
I-4
sg14
I-4
sg15
I-4
sg16
I-4
sg17
I-4
sg18
I-4
sg19
I-4
sg20
I-4
sg21
I-4
sg22
I-4
sg23
I-4
sg24
I-4
sg25
I-4
sg26
I-4
sg27
I-4
sg28
I-4
sg29
I-4
sg30
I-4
sg31
I-4
sg32
I-4
sg33
I-4
sg34
I-4
sg35
I-4
sg36
I-4
sg37
I-4
sg38
I-4
sg39
I-4
sg40
I-4
sg41
I-4
sg42
I-4
sg43
I-4
sg44
I-4
sg45
I-4
sg46
I-4
sg47
I-4
sg48
I-4
sg49
I-4
sg50
I-4
sg51
I-4
sg52
I-4
sg53
I-4
sg54
I-4
sVRBRACE
p58
I-4
ssI4
(dp59
g2
I-5
sg3
I-5
sg4
I-5
sg5
I-5
sg6
I-5
sg7
I-5
sg8
I-5
sg9
I-5
sg10
I-5
sg11
I-5
sg12
I-5
sg13
I-5
sg14
I-5
sg15
I-5
sg16
I-5
sg17
I-5
sg18
I-5
sg19
I-5
sg20
I-5
sg21
I-5
sg22
I-5
sg23
I-5
sg24
I-5
sg25
I-5
sg26
I-5
sg27
I-5
sg28
I-5
sg29
I-5
sg30
I-5
sg31
I-5
sg32
I-5
sg33
I-5
sg34
I-5
sg35
I-5
sg36
I-5
sg37
I-5
sg38
I-5
sg39
I-5
sg40
I-5
sg41
I-5
sg42
I-5
sg43
I-5
sg44
I-5
sg45
I-5
sg46
I-5
sg47
I-5
sg48
I-5
sg49
I-5
sg50
I-5
sg51
I-5
sg52
I-5
sg53
I-5
sg54
I-5
sg58
I-5
ssI5
(dp60
g2
I-6
sg3
I-6
sg4
I-6
sg5
I-6
sg6
I-6
sg7
I-6
sg8
I-6
sg9
I-6
sg10
I-6
sg11
I-6
sg12
I-6
sg13
I-6
sg14
I-6
sg15
I-6
sg16
I-6
sg17
I-6
sg18
I-6
sg19
I-6
sg20
I-6
sg21
I-6
sg22
I-6
sg23
I-6
sg24
I-6
sg25
I-6
sg26
I-6
sg27
I-6
sg28
I-6
sg29
I-6
sg30
I-6
sg31
I-6
sg32
I-6
sg33
I-6
sg34
I-6
sg35
I-6
sg36
I-6
sg37
I-6
sg38
I-6
sg39
I-6
sg40
I-6
sg41
I-6
sg42
I-6
sg43
I-6
sg44
I-6
sg45
I-6
sg46
I-6
sg47
I-6
sg48
I-6
sg49
I-6
sg50
I-6
sg51
I-6
sg52
I-6
sg53
I-6
sg54
I-6
sg58
I-6
ssI6
(dp61
g2
I-8
sg3
I-8
sg4
I-8
sg5
I-8
sg6
I-8
sg7
I-8
sg8
I-8
sg9
I-8
sg10
I-8
sg11
I-8
sg12
I-8
sg13
I-8
sg14
I-8
sg15
I-8
sg16
I-8
sg17
I-8
sg18
I-8
sg19
I-8
sg20
I-8
sg21
I-8
sg22
I-8
sg23
I-8
sg24
I-8
sg25
I-8
sg26
I-8
sg27
I-8
sg28
I-8
sg29
I-8
sg30
I-8
sg31
I-8
sg32
I-8
sg33
I-8
sg34
I-8
sg35
I-8
sg36
I-8
sg37
I-8
sg38
I-8
sg39
I-8
sg40
I-8
sg41
I-8
sg42
I-8
sg43
I-8
sg44
I-8
sg45
I-8
sg46
I-8
sg47
I-8
sg48
I-8
sg49
I-8
sg50
I-8
sg51
I-8
sg52
I-8
sg53
I-8
sg54
I-8
sg58
I-8
ssI7
(dp62
g2
I-9
sg3
I-9
sg4
I-9
sg5
I-9
sg6
I-9
sg7
I-9
sg8
I-9
sg9
I-9
sg10
I-9
sg11
I-9
sg12
I-9
sg13
I-9
sg14
I-9
sg15
I-9
sg16
I-9
sg17
I-9
sg18
I-9
sg19
I-9
sg20
I-9
sg21
I-9
sg22
I-9
sg23
I-9
sg24
I-9
sg25
I-9
sg26
I-9
sg27
I-9
sg28
I-9
sg29
I-9
sg30
I-9
sg31
I-9
sg32
I-9
sg33
I-9
sg34
I-9
sg35
I-9
sg36
I-9
sg37
I-9
sg38
I-9
sg39
I-9
sg40
I-9
sg41
I-9
sg42
I-9
sg43
I-9
sg44
I-9
sg45
I-9
sg46
I-9
sg47
I-9
sg48
I-9
sg49
I-9
sg50
I-9
sg51
I-9
sg52
I-9
sg53
I-9
sg54
I-9
sg58
I-9
ssI8
(dp63
g2
I-10
sg3
I-10
sg4
I-10
sg5
I-10
sg6
I-10
sg7
I-10
sg8
I-10
sg9
I-10
sg10
I-10
sg11
I-10
sg12
I-10
sg13
I-10
sg14
I-10
sg15
I-10
sg16
I-10
sg17
I-10
sg18
I-10
sg19
I-10
sg20
I-10
sg21
I-10
sg22
I-10
sg23
I-10
sg24
I-10
sg25
I-10
sg26
I-10
sg27
I-10
sg28
I-10
sg29
I-10
sg30
I-10
sg31
I-10
sg32
I-10
sg33
I-10
sg34
I-10
sg35
I-10
sg36
I-10
sg37
I-10
sg38
I-10
sg39
I-10
sg40
I-10
sg41
I-10
sg42
I-10
sg43
I-10
sg44
I-10
sg45
I-10
sg46
I-10
sg47
I-10
sg48
I-10
sg49
I-10
sg50
I-10
sg51
I-10
sg52
I-10
sg53
I-10
sg54
I-10
sg58
I-10
ssI9
(dp64
g2
I-11
sg3
I-11
sg4
I-11
sg5
I-11
sg6
I-11
sg7
I-11
sg8
I-11
sg9
I-11
sg10
I-11
sg11
I-11
sg12
I-11
sg13
I-11
sg14
I-11
sg15
I-11
sg16
I-11
sg17
I-11
sg18
I-11
sg19
I-11
sg20
I-11
sg21
I-11
sg22
I-11
sg23
I-11
sg24
I-11
sg25
I-11
sg26
I-11
sg27
I-11
sg28
I-11
sg29
I-11
sg30
I-11
sg31
I-11
sg32
I-11
sg33
I-11
sg34
I-11
sg35
I-11
sg36
I-11
sg37
I-11
sg38
I-11
sg39
I-11
sg40
I-11
sg41
I-11
sg42
I-11
sg43
I-11
sg44
I-11
sg45
I-11
sg46
I-11
sg47
I-11
sg48
I-11
sg49
I-11
sg50
I-11
sg51
I-11
sg52
I-11
sg53
I-11
sg54
I-11
sg58
I-11
ssI10
(dp65
g2
I-12
sg3
I-12
sg4
I-12
sg5
I-12
sg6
I-12
sg7
I-12
sg8
I-12
sg9
I-12
sg10
I-12
sg11
I-12
sg12
I-12
sg13
I-12
sg14
I-12
sg15
I-12
sg16
I-12
sg17
I-12
sg18
I-12
sg19
I-12
sg20
I-12
sg21
I-12
sg22
I-12
sg23
I-12
sg24
I-12
sg25
I-12
sg26
I-12
sg27
I-12
sg28
I-12
sg29
I-12
sg30
I-12
sg31
I-12
sg32
I-12
sg33
I-12
sg34
I-12
sg35
I-12
sg36
I-12
sg37
I-12
sg38
I-12
sg39
I-12
sg40
I-12
sg41
I-12
sg42
I-12
sg43
I-12
sg44
I-12
sg45
I-12
sg46
I-12
sg47
I-12
sg48
I-12
sg49
I-12
sg50
I-12
sg51
I-12
sg52
I-12
sg53
I-12
sg54
I-12
sg58
I-12
ssI11
(dp66
g2
I-13
sg3
I-13
sg4
I-13
sg5
I-13
sg6
I-13
sg7
I-13
sg8
I-13
sg9
I-13
sg10
I-13
sg11
I-13
sg12
I-13
sg13
I-13
sg14
I-13
sg15
I-13
sg16
I-13
sg17
I-13
sg18
I-13
sg19
I-13
sg20
I-13
sg21
I-13
sg22
I-13
sg23
I-13
sg24
I-13
sg25
I-13
sg26
I-13
sg27
I-13
sg28
I-13
sg29
I-13
sg30
I-13
sg31
I-13
sg32
I-13
sg33
I-13
sg34
I-13
sg35
I-13
sg36
I-13
sg37
I-13
sg38
I-13
sg39
I-13
sg40
I-13
sg41
I-13
sg42
I-13
sg43
I-13
sg44
I-13
sg45
I-13
sg46
I-13
sg47
I-13
sg48
I-13
sg49
I-13
sg50
I-13
sg51
I-13
sg52
I-13
sg53
I-13
sg54
I-13
sg58
I-13
ssI12
(dp67
g2
I-14
sg3
I-14
sg4
I-14
sg5
I-14
sg6
I-14
sg7
I-14
sg8
I-14
sg9
I-14
sg10
I-14
sg11
I-14
sg12
I-14
sg13
I-14
sg14
I-14
sg15
I-14
sg16
I-14
sg17
I-14
sg18
I-14
sg19
I-14
sg20
I-14
sg21
I-14
sg22
I-14
sg23
I-14
sg24
I-14
sg25
I-14
sg26
I-14
sg27
I-14
sg28
I-14
sg29
I-14
sg30
I-14
sg31
I-14
sg32
I-14
sg33
I-14
sg34
I-14
sg35
I-14
sg36
I-14
sg37
I-14
sg38
I-14
sg39
I-14
sg40
I-14
sg41
I-14
sg42
I-14
sg43
I-14
sg44
I-14
sg45
I-14
sg46
I-14
sg47
I-14
sg48
I-14
sg49
I-14
sg50
I-14
sg51
I-14
sg52
I-14
sg53
I-14
sg54
I-14
sg58
I-14
ssI13
(dp68
g2
I-15
sg3
I-15
sg4
I-15
sg5
I-15
sg6
I-15
sg7
I-15
sg8
I-15
sg9
I-15
sg10
I-15
sg11
I-15
sg12
I-15
sg13
I-15
sg14
I-15
sg15
I-15
sg16
I-15
sg17
I-15
sg18
I-15
sg19
I-15
sg20
I-15
sg21
I-15
sg22
I-15
sg23
I-15
sg24
I-15
sg25
I-15
sg26
I-15
sg27
I-15
sg28
I-15
sg29
I-15
sg30
I-15
sg31
I-15
sg32
I-15
sg33
I-15
sg34
I-15
sg35
I-15
sg36
I-15
sg37
I-15
sg38
I-15
sg39
I-15
sg40
I-15
sg41
I-15
sg42
I-15
sg43
I-15
sg44
I-15
sg45
I-15
sg46
I-15
sg47
I-15
sg48
I-15
sg49
I-15
sg50
I-15
sg51
I-15
sg52
I-15
sg53
I-15
sg54
I-15
sg58
I-15
ssI14
(dp69
g2
I-16
sg3
I-16
sg4
I-16
sg5
I-16
sg6
I-16
sg7
I-16
sg8
I-16
sg9
I-16
sg10
I-16
sg11
I-16
sg12
I-16
sg13
I-16
sg14
I-16
sg15
I-16
sg16
I-16
sg17
I-16
sg18
I-16
sg19
I-16
sg20
I-16
sg21
I-16
sg22
I-16
sg23
I-16
sg24
I-16
sg25
I-16
sg26
I-16
sg27
I-16
sg28
I-16
sg29
I-16
sg30
I-16
sg31
I-16
sg32
I-16
sg33
I-16
sg34
I-16
sg35
I-16
sg36
I-16
sg37
I-16
sg38
I-16
sg39
I-16
sg40
I-16
sg41
I-16
sg42
I-16
sg43
I-16
sg44
I-16
sg45
I-16
sg46
I-16
sg47
I-16
sg48
I-16
sg49
I-16
sg50
I-16
sg51
I-16
sg52
I-16
sg53
I-16
sg54
I-16
sg58
I-16
ssI15
(dp70
g2
I-17
sg3
I-17
sg4
I-17
sg5
I-17
sg6
I-17
sg7
I-17
sg8
I-17
sg9
I-17
sg10
I-17
sg11
I-17
sg12
I-17
sg13
I-17
sg14
I-17
sg15
I-17
sg16
I-17
sg17
I-17
sg18
I-17
sg19
I-17
sg20
I-17
sg21
I-17
sg22
I-17
sg23
I-17
sg24
I-17
sg25
I-17
sg26
I-17
sg27
I-17
sg28
I-17
sg29
I-17
sg30
I-17
sg31
I-17
sg32
I-17
sg33
I-17
sg34
I-17
sg35
I-17
sg36
I-17
sg37
I-17
sg38
I-17
sg39
I-17
sg40
I-17
sg41
I-17
sg42
I-17
sg43
I-17
sg44
I-17
sg45
I-17
sg46
I-17
sg47
I-17
sg48
I-17
sg49
I-17
sg50
I-17
sg51
I-17
sg52
I-17
sg53
I-17
sg54
I-17
sg58
I-17
ssI16
(dp71
g2
I16
sg58
I-130
sg3
I17
sg4
I20
sg5
I21
sg6
I22
sg7
I23
sg8
I24
sg9
I25
sg10
I26
sg11
I27
sg12
I28
sg13
I29
sg14
I30
sg15
I31
sg16
I32
sg17
I33
sg18
I34
sg19
I35
sg20
I36
sg21
I37
sg22
I38
sg23
I39
sg24
I40
sg25
I41
sg26
I42
sg27
I43
sg28
I44
sg29
I45
sg30
I46
sg31
I47
sg32
I48
sg33
I49
sg34
I50
sg35
I52
sg36
I53
sg37
I54
sg38
I55
sg39
I56
sg40
I57
sg41
I58
sg42
I18
sg43
I59
sg44
I60
sg45
I51
sg46
I69
sg47
I70
sg48
I71
sg49
I72
sg50
I73
sg51
I74
sg52
I75
sg53
I76
sVCOMMA
p72
I-130
ssI17
(dp73
VID
p74
I84
ssI18
(dp75
VASSIGN
p76
I85
sVPLUS
p77
I-92
sVMINUS
p78
I-92
sVMULTIPLY
p79
I-92
sVDIVIDE
p80
I-92
sVMODULO
p81
I-92
sVEQ
p82
I-92
sVNE
p83
I-92
sVLT
p84
I-92
sVLE
p85
I-92
sVGT
p86
I-92
sVGE
p87
I-92
sVAND
p88
I-92
sVOR
p89
I-92
sVIS
p90
I-92
sVDOT
p91
I-92
sVLBRACKET
p92
I-92
sg2
I-92
sg3
I-92
sg4
I-92
sg5
I-92
sg6
I-92
sg7
I-92
sg8
I-92
sg9
I-92
sg10
I-92
sg11
I-92
sg12
I-92
sg13
I-92
sg14
I-92
sg15
I-92
sg16
I-92
sg17
I-92
sg18
I-92
sg19
I-92
sg20
I-92
sg21
I-92
sg22
I-92
sg23
I-92
sg24
I-92
sg25
I-92
sg26
I-92
sg27
I-92
sg28
I-92
sg29
I-92
sg30
I-92
sg31
I-92
sg32
I-92
sg33
I-92
sg34
I-92
sg35
I-92
sg36
I-92
sg37
I-92
sg38
I-92
sg39
I-92
sg40
I-92
sg41
I-92
sg42
I-92
sg44
I-92
sg45
I86
sg46
I-92
sg47
I-92
sg48
I-92
sg49
I-92
sg50
I-92
sg51
I-92
sg52
I-92
sg54
I-92
sVCOLON
p93
I-92
sg58
I-92
sVRPAREN
p94
I-92
sVRBRACKET
p95
I-92
sVCOMMA
p96
I-92
sVINTERPOL_END
p97
I-92
ssI19
(dp98
g2
I-72
sg3
I-72
sg4
I-72
sg5
I-72
sg6
I-72
sg7
I-72
sg8
I-72
sg9
I-72
sg10
I-72
sg11
I-72
sg12
I-72
sg13
I-72
sg14
I-72
sg15
I-72
sg16
I-72
sg17
I-72
sg18
I-72
sg19
I-72
sg20
I-72
sg21
I-72
sg22
I-72
sg23
I-72
sg24
I-72
sg25
I-72
sg26
I-72
sg27
I-72
sg28
I-72
sg29
I-72
sg30
I-72
sg31
I-72
sg32
I-72
sg33
I-72
sg34
I-72
sg35
I-72
sg36
I-72
sg37
I-72
sg38
I-72
sg39
I-72
sg40
I-72
sg41
I-72
sg42
I-72
sg43
I88
sg44
I-72
sg45
I-72
sg46
I-72
sg47
I-72
sg48
I-72
sg49
I-72
sg50
I-72
sg51
I-72
sg52
I-72
sg53
I102
sg54
I-72
sg58
I-72
sg77
I87
sg79
I89
sg80
I90
sg81
I91
sg82
I92
sg83
I93
sg84
I94
sg85
I95
sg86
I96
sg87
I97
sg88
I98
sg89
I99
sg90
I100
sg91
I101
ssI20
(dp99
VID
p100
I103
ssI21
(dp101
VID
p102
I104
ssI22
(dp103
VID
p104
I105
ssI23
(dp105
VID
p106
I106
ssI24
(dp107
VID
p108
I107
ssI25
(dp109
VID
p110
I108
ssI26
(dp111
VID
p112
I109
ssI27
(dp113
VID
p114
I110
ssI28
(dp115
VID
p116
I111
ssI29
(dp117
VID
p118
I112
ssI30
(dp119
VID
p120
I113
ssI31
(dp121
VID
p122
I114
ssI32
(dp123
VID
p124
I115
ssI33
(dp125
VID
p126
I116
ssI34
(dp127
VID
p128
I117
ssI35
(dp129
VID
p130
I118
ssI36
(dp131
VID
p132
I119
ssI37
(dp133
VID
p134
I120
ssI38
(dp135
VID
p136
I121
ssI39
(dp137
VID
p138
I122
ssI40
(dp139
VID
p140
I123
ssI41
(dp141
VID
p142
I124
ssI42
(dp143
VID
p144
I125
ssI43
(dp145
VID
p146
I126
ssI44
(dp147
VID
p148
I127
ssI45
(dp149
VID
p150
I128
ssI46
(dp151
VID
p152
I129
ssI47
(dp153
VID
p154
I130
ssI48
(dp155
VID
p156
I131
ssI49
(dp157
VID
p158
I132
ssI50
(dp159
VID
p160
I133
ssI51
(dp161
g42
I18
sg43
I59
sg44
I60
sg45
I51
sg46
I69
sg47
I70
sg48
I71
sg49
I72
sg50
I73
sg51
I74
sg52
I75
sg53
I76
sVLBRACE
p162
I135
ssI52
(dp163
g42
I18
sg43
I59
sg44
I60
sg45
I51
sg46
I69
sg47
I70
sg48
I71
sg49
I72
sg50
I73
sg51
I74
sg52
I75
sg53
I76
sg162
I135
ssI53
(dp164
g42
I18
sg43
I59
sg44
I60
sg45
I51
sg46
I69
sg47
I70
sg48
I71
sg49
I72
sg50
I73
sg51
I74
sg52
I75
sg53
I76
sg162
I135
ssI54
(dp165
VID
p166
I138
ssI55
(dp167
g42
I18
sg43
I59
sg44
I60
sg45
I51
sg46
I69
sg47
I70
sg48
I71
sg49
I72
sg50
I73
sg51
I74
sg52
I75
sg53
I76
sg162
I135
ssI56
(dp168
g42
I18
sg43
I59
sg44
I60
sg45
I51
sg46
I69
sg47
I70
sg48
I71
sg49
I72
sg50
I73
sg51
I74
sg52
I75
sg53
I76
sg162
I135
ssI57
(dp169
g42
I18
sg43
I59
sg44
I60
sg45
I51
sg46
I69
sg47
I70
sg48
I71
sg49
I72
sg50
I73
sg51
I74
sg52
I75
sg53
I76
sg162
I135
ssI58
(dp170
g2
I135
sg3
I-71
sg4
I-71
sg5
I-71
sg6
I-71
sg7
I-71
sg8
I-71
sg9
I-71
sg10
I-71
sg11
I-71
sg12
I-71
sg13
I-71
sg14
I-71
sg15
I-71
sg16
I-71
sg17
I-71
sg18
I-71
sg19
I-71
sg20
I-71
sg21
I-71
sg22
I-71
sg23
I-71
sg24
I-71
sg25
I-71
sg26
I-71
sg27
I-71
sg28
I-71
sg29
I-71
sg30
I-71
sg31
I-71
sg32
I-71
sg33
I-71
sg34
I-71
sg35
I-71
sg36
I-71
sg37
I-71
sg38
I-71
sg39
I-71
sg40
I-71
sg41
I-71
sg42
I18
sg43
I59
sg44
I60
sg45
I51
sg46
I69
sg47
I70
sg48
I71
sg49
I72
sg50
I73
sg51
I74
sg52
I75
sg53
I76
sg54
I-71
sg58
I-71
ssI59
(dp171
g42
I18
sg43
I59
sg44
I60
sg45
I51
sg46
I69
sg47
I70
sg48
I71
sg49
I72
sg50
I73
sg51
I74
sg52
I75
sg53
I76
sg162
I135
ssI60
(dp172
g42
I18
sg43
I59
sg44
I60
sg45
I51
sg46
I69
sg47
I70
sg48
I71
sg49
I72
sg50
I73
sg51
I74
sg52
I75
sg53
I76
sg162
I135
ssI61
(dp173
g77
I-91
sg78
I-91
sg79
I-91
sg80
I-91
sg81
I-91
sg82
I-91
sg83
I-91
sg84
I-91
sg85
I-91
sg86
I-91
sg87
I-91
sg88
I-91
sg89
I-91
sg90
I-91
sg91
I-91
sg92
I-91
sg2
I-91
sg3
I-91
sg4
I-91
sg5
I-91
sg6
I-91
sg7
I-91
sg8
I-91
sg9
I-91
sg10
I-91
sg11
I-91
sg12
I-91
sg13
I-91
sg14
I-91
sg15
I-91
sg16
I-91
sg17
I-91
sg18
I-91
sg19
I-91
sg20
I-91
sg21
I-91
sg22
I-91
sg23
I-91
sg24
I-91
sg25
I-91
sg26
I-91
sg27
I-91
sg28
I-91
sg29
I-91
sg30
I-91
sg31
I-91
sg32
I-91
sg33
I-91
sg34
I-91
sg35
I-91
sg36
I-91
sg37
I-91
sg38
I-91
sg39
I-91
sg40
I-91
sg41
I-91
sg42
I-91
sg44
I-91
sg45
I-91
sg46
I-91
sg47
I-91
sg48
I-91
sg49
I-91
sg50
I-91
sg51
I-91
sg52
I-91
sg54
I-91
sg93
I-91
sg58
I-91
sg94
I-91
sg95
I-91
sg96
I-91
sg97
I-91
ssI62
(dp174
g77
I-93
sg78
I-93
sg79
I-93
sg80
I-93
sg81
I-93
sg82
I-93
sg83
I-93
sg84
I-93
sg85
I-93
sg86
I-93
sg87
I-93
sg88
I-93
sg89
I-93
sg90
I-93
sg91
I-93
sg92
I-93
sg2
I-93
sg3
I-93
sg4
I-93
sg5
I-93
sg6
I-93
sg7
I-93
sg8
I-93
sg9
I-93
sg10
I-93
sg11
I-93
sg12
I-93
sg13
I-93
sg14
I-93
sg15
I-93
sg16
I-93
sg17
I-93
sg18
I-93
sg19
I-93
sg20
I-93
sg21
I-93
sg22
I-93
sg23
I-93
sg24
I-93
sg25
I-93
sg26
I-93
sg27
I-93
sg28
I-93
sg29
I-93
sg30
I-93
sg31
I-93
sg32
I-93
sg33
I-93
sg34
I-93
sg35
I-93
sg36
I-93
sg37
I-93
sg38
I-93
sg39
I-93
sg40
I-93
sg41
I-93
sg42
I-93
sg44
I-93
sg45
I-93
sg46
I-93
sg47
I-93
sg48
I-93
sg49
I-93
sg50
I-93
sg51
I-93
sg52
I-93
sg54
I-93
sg93
I-93
sg58
I-93
sg94
I-93
sg95
I-93
sg96
I-93
sg97
I-93
ssI63
(dp175
g77
I-94
sg78
I-94
sg79
I-94
sg80
I-94
sg81
I-94
sg82
I-94
sg83
I-94
sg84
I-94
sg85
I-94
sg86
I-94
sg87
I-94
sg88
I-94
sg89
I-94
sg90
I-94
sg91
I-94
sg92
I-94
sg2
I-94
sg3
I-94
sg4
I-94
sg5
I-94
sg6
I-94
sg7
I-94
sg8
I-94
sg9
I-94
sg10
I-94
sg11
I-94
sg12
I-94
sg13
I-94
sg14
I-94
sg15
I-94
sg16
I-94
sg17
I-94
sg18
I-94
sg19
I-94
sg20
I-94
sg21
I-94
sg22
I-94
sg23
I-94
sg24
I-94
sg25
I-94
sg26
I-94
sg27
I-94
sg28
I-94
sg29
I-94
sg30
I-94
sg31
I-94
sg32
I-94
sg33
I-94
sg34
I-94
sg35
I-94
sg36
I-94
sg37
I-94
sg38
I-94
sg39
I-94
sg40
I-94
sg41
I-94
sg42
I-94
sg44
I-94
sg45
I-94
sg46
I-94
sg47
I-94
sg48
I-94
sg49
I-94
sg50
I-94
sg51
I-94
sg52
I-94
sg54
I-94
sg93
I-94
sg58
I-94
sg94
I-94
sg95
I-94
sg96
I-94
sg97
I-94
ssI64
(dp176
g77
I-95
sg78
I-95
sg79
I-95
sg80
I-95
sg81
I-95
sg82
I-95
sg83
I-95
sg84
I-95
sg85
I-95
sg86
I-95
sg87
I-95
sg88
I-95
sg89
I-95
sg90
I-95
sg91
I-95
sg92
I-95
sg2
I-95
sg3
I-95
sg4
I-95
sg5
I-95
sg6
I-95
sg7
I-95
sg8
I-95
sg9
I-95
sg10
I-95
sg11
I-95
sg12
I-95
sg13
I-95
sg14
I-95
sg15
I-95
sg16
I-95
sg17
I-95
sg18
I-95
sg19
I-95
sg20
I-95
sg21
I-95
sg22
I-95
sg23
I-95
sg24
I-95
sg25
I-95
sg26
I-95
sg27
I-95
sg28
I-95
sg29
I-95
sg30
I-95
sg31
I-95
sg32
I-95
sg33
I-95
sg34
I-95
sg35
I-95
sg36
I-95
sg37
I-95
sg38
I-95
sg39
I-95
sg40
I-95
sg41
I-95
sg42
I-95
sg44
I-95
sg45
I-95
sg46
I-95
sg47
I-95
sg48
I-95
sg49
I-95
sg50
I-95
sg51
I-95
sg52
I-95
sg54
I-95
sg93
I-95
sg58
I-95
sg94
I-95
sg95
I-95
sg96
I-95
sg97
I-95
ssI65
(dp177
g77
I-96
sg78
I-96
sg79
I-96
sg80
I-96
sg81
I-96
sg82
I-96
sg83
I-96
sg84
I-96
sg85
I-96
sg86
I-96
sg87
I-96
sg88
I-96
sg89
I-96
sg90
I-96
sg91
I-96
sg92
I-96
sg2
I-96
sg3
I-96
sg4
I-96
sg5
I-96
sg6
I-96
sg7
I-96
sg8
I-96
sg9
I-96
sg10
I-96
sg11
I-96
sg12
I-96
sg13
I-96
sg14
I-96
sg15
I-96
sg16
I-96
sg17
I-96
sg18
I-96
sg19
I-96
sg20
I-96
sg21
I-96
sg22
I-96
sg23
I-96
sg24
I-96
sg25
I-96
sg26
I-96
sg27
I-96
sg28
I-96
sg29
I-96
sg30
I-96
sg31
I-96
sg32
I-96
sg33
I-96
sg34
I-96
sg35
I-96
sg36
I-96
sg37
I-96
sg38
I-96
sg39
I-96
sg40
I-96
sg41
I-96
sg42
I-96
sg44
I-96
sg45
I-96
sg46
I-96
sg47
I-96
sg48
I-96
sg49
I-96
sg50
I-96
sg51
I-96
sg52
I-96
sg54
I-96
sg93
I-96
sg58
I-96
sg94
I-96
sg95
I-96
sg96
I-96
sg97
I-96
ssI66
(dp178
g77
I-97
sg78
I-97
sg79
I-97
sg80
I-97
sg81
I-97
sg82
I-97
sg83
I-97
sg84
I-97
sg85
I-97
sg86
I-97
sg87
I-97
sg88
I-97
sg89
I-97
sg90
I-97
sg91
I-97
sg92
I-97
sg2
I-97
sg3
I-97
sg4
I-97
sg5
I-97
sg6
I-97
sg7
I-97
sg8
I-97
sg9
I-97
sg10
I-97
sg11
I-97
sg12
I-97
sg13
I-97
sg14
I-97
sg15
I-97
sg16
I-97
sg17
I-97
sg18
I-97
sg19
I-97
sg20
I-97
sg21
I-97
sg22
I-97
sg23
I-97
sg24
I-97
sg25
I-97
sg26
I-97
sg27
I-97
sg28
I-97
sg29
I-97
sg30
I-97
sg31
I-97
sg32
I-97
sg33
I-97
sg34
I-97
sg35
I-97
sg36
I-97
sg37
I-97
sg38
I-97
sg39
I-97
sg40
I-97
sg41
I-97
sg42
I-97
sg44
I-97
sg45
I-97
sg46
I-97
sg47
I-97
sg48
I-97
sg49
I-97
sg50
I-97
sg51
I-97
sg52
I-97
sg54
I-97
sg93
I-97
sg58
I-97
sg94
I-97
sg95
I-97
sg96
I-97
sg97
I-97
ssI67
(dp179
g77
I-98
sg78
I-98
sg79
I-98
sg80
I-98
sg81
I-98
sg82
I-98
sg83
I-98
sg84
I-98
sg85
I-98
sg86
I-98
sg87
I-98
sg88
I-98
sg89
I-98
sg90
I-98
sg91
I-98
sg92
I-98
sg2
I-98
sg3
I-98
sg4
I-98
sg5
I-98
sg6
I-98
sg7
I-98
sg8
I-98
sg9
I-98
sg10
I-98
sg11
I-98
sg12
I-98
sg13
I-98
sg14
I-98
sg15
I-98
sg16
I-98
sg17
I-98
sg18
I-98
sg19
I-98
sg20
I-98
sg21
I-98
sg22
I-98
sg23
I-98
sg24
I-98
sg25
I-98
sg26
I-98
sg27
I-98
sg28
I-98
sg29
I-98
sg30
I-98
sg31
I-98
sg32
I-98
sg33
I-98
sg34
I-98
sg35
I-98
sg36
I-98
sg37
I-98
sg38
I-98
sg39
I-98
sg40
I-98
sg41
I-98
sg42
I-98
sg44
I-98
sg45
I-98
sg46
I-98
sg47
I-98
sg48
I-98
sg49
I-98
sg50
I-98
sg51
I-98
sg52
I-98
sg54
I-98
sg93
I-98
sg58
I-98
sg94
I-98
sg95
I-98
sg96
I-98
sg97
I-98
ssI68
(dp180
g77
I-99
sg78
I-99
sg79
I-99
sg80
I-99
sg81
I-99
sg82
I-99
sg83
I-99
sg84
I-99
sg85
I-99
sg86
I-99
sg87
I-99
sg88
I-99
sg89
I-99
sg90
I-99
sg91
I-99
sg92
I-99
sg2
I-99
sg3
I-99
sg4
I-99
sg5
I-99
sg6
I-99
sg7
I-99
sg8
I-99
sg9
I-99
sg10
I-99
sg11
I-99
sg12
I-99
sg13
I-99
sg14
I-99
sg15
I-99
sg16
I-99
sg17
I-99
sg18
I-99
sg19
I-99
sg20
I-99
sg21
I-99
sg22
I-99
sg23
I-99
sg24
I-99
sg25
I-99
sg26
I-99
sg27
I-99
sg28
I-99
sg29
I-99
sg30
I-99
sg31
I-99
sg32
I-99
sg33
I-99
sg34
I-99
sg35
I-99
sg36
I-99
sg37
I-99
sg38
I-99
sg39
I-99
sg40
I-99
sg41
I-99
sg42
I-99
sg44
I-99
sg45
I-99
sg46
I-99
sg47
I-99
sg48
I-99
sg49
I-99
sg50
I-99
sg51
I-99
sg52
I-99
sg54
I-99
sg93
I-99
sg58
I-99
sg94
I-99
sg95
I-99
sg96
I-99
sg97
I-99
ssI69
(dp181
g77
I-113
sg78
I-113
sg79
I-113
sg80
I-113
sg81
I-113
sg82
I-113
sg83
I-113
sg84
I-113
sg85
I-113
sg86
I-113
sg87
I-113
sg88
I-113
sg89
I-113
sg90
I-113
sg91
I-113
sg92
I-113
sg2
I-113
sg3
I-113
sg4
I-113
sg5
I-113
sg6
I-113
sg7
I-113
sg8
I-113
sg9
I-113
sg10
I-113
sg11
I-113
sg12
I-113
sg13
I-113
sg14
I-113
sg15
I-113
sg16
I-113
sg17
I-113
sg18
I-113
sg19
I-113
sg20
I-113
sg21
I-113
sg22
I-113
sg23
I-113
sg24
I-113
sg25
I-113
sg26
I-113
sg27
I-113
sg28
I-113
sg29
I-113
sg30
I-113
sg31
I-113
sg32
I-113
sg33
I-113
sg34
I-113
sg35
I-113
sg36
I-113
sg37
I-113
sg38
I-113
sg39
I-113
sg40
I-113
sg41
I-113
sg42
I-113
sg44
I-113
sg45
I-113
sg46
I-113
sg47
I-113
sg48
I-113
sg49
I-113
sg50
I-113
sg51
I-113
sg52
I-113
sg54
I-113
sg93
I-113
sg58
I-113
sg94
I-113
sg95
I-113
sg96
I-113
sg97
I-113
ssI70
(dp182
g77
I-114
sg78
I-114
sg79
I-114
sg80
I-114
sg81
I-114
sg82
I-114
sg83
I-114
sg84
I-114
sg85
I-114
sg86
I-114
sg87
I-114
sg88
I-114
sg89
I-114
sg90
I-114
sg91
I-114
sg92
I-114
sg2
I-114
sg3
I-114
sg4
I-114
sg5
I-114
sg6
I-114
sg7
I-114
sg8
I-114
sg9
I-114
sg10
I-114
sg11
I-114
sg12
I-114
sg13
I-114
sg14
I-114
sg15
I-114
sg16
I-114
sg17
I-114
sg18
I-114
sg19
I-114
sg20
I-114
sg21
I-114
sg22
I-114
sg23
I-114
sg24
I-114
sg25
I-114
sg26
I-114
sg27
I-114
sg28
I-114
sg29
I-114
sg30
I-114
sg31
I-114
sg32
I-114
sg33
I-114
sg34
I-114
sg35
I-114
sg36
I-114
sg37
I-114
sg38
I-114
sg39
I-114
sg40
I-114
sg41
I-114
sg42
I-114
sg44
I-114
sg45
I-114
sg46
I-114
sg47
I-114
sg48
I-114
sg49
I-114
sg50
I-114
sg51
I-114
sg52
I-114
sg54
I-114
sg93
I-114
sg58
I-114
sg94
I-114
sg95
I-114
sg96
I-114
sg97
I-114
ssI71
(dp183
g77
I-115
sg78
I-115
sg79
I-115
sg80
I-115
sg81
I-115
sg82
I-115
sg83
I-115
sg84
I-115
sg85
I-115
sg86
I-115
sg87
I-115
sg88
I-115
sg89
I-115
sg90
I-115
sg91
I-115
sg92
I-115
sg2
I-115
sg3
I-115
sg4
I-115
sg5
I-115
sg6
I-115
sg7
I-115
sg8
I-115
sg9
I-115
sg10
I-115
sg11
I-115
sg12
I-115
sg13
I-115
sg14
I-115
sg15
I-115
sg16
I-115
sg17
I-115
sg18
I-115
sg19
I-115
sg20
I-115
sg21
I-115
sg22
I-115
sg23
I-115
sg24
I-115
sg25
I-115
sg26
I-115
sg27
I-115
sg28
I-115
sg29
I-115
sg30
I-115
sg31
I-115
sg32
I-115
sg33
I-115
sg34
I-115
sg35
I-115
sg36
I-115
sg37
I-115
sg38
I-115
sg39
I-115
sg40
I-115
sg41
I-115
sg42
I-115
sg44
I-115
sg45
I-115
sg46
I-115
sg47
I-115
sg48
I-115
sg49
I-115
sg50
I-115
sg51
I-115
sg52
I-115
sg54
I-115
sg93
I-115
sg58
I-115
sg94
I-115
sg95
I-115
sg96
I-115
sg97
I-115
ssI72
(dp184
g77
I-116
sg78
I-116
sg79
I-116
sg80
I-116
sg81
I-116
sg82
I-116
sg83
I-116
sg84
I-116
sg85
I-116
sg86
I-116
sg87
I-116
sg88
I-116
sg89
I-116
sg90
I-116
sg91
I-116
sg92
I-116
sg2
I-116
sg3
I-116
sg4
I-116
sg5
I-116
sg6
I-116
sg7
I-116
sg8
I-116
sg9
I-116
sg10
I-116
sg11
I-116
sg12
I-116
sg13
I-116
sg14
I-116
sg15
I-116
sg16
I-116
sg17
I-116
sg18
I-116
sg19
I-116
sg20
I-116
sg21
I-116
sg22
I-116
sg23
I-116
sg24
I-116
sg25
I-116
sg26
I-116
sg27
I-116
sg28
I-116
sg29
I-116
sg30
I-116
sg31
I-116
sg32
I-116
sg33
I-116
sg34
I-116
sg35
I-116
sg36
I-116
sg37
I-116
sg38
I-116
sg39
I-116
sg40
I-116
sg41
I-116
sg42
I-116
sg44
I-116
sg45
I-116
sg46
I-116
sg47
I-116
sg48
I-116
sg49
I-116
sg50
I-116
sg51
I-116
sg52
I-116
sg54
I-116
sg93
I-116
sg58
I-116
sg94
I-116
sg95
I-116
sg96
I-116
sg97
I-116
ssI73
(dp185
g77
I-117
sg78
I-117
sg79
I-117
sg80
I-117
sg81
I-117
sg82
I-117
sg83
I-117
sg84
I-117
sg85
I-117
sg86
I-117
sg87
I-117
sg88
I-117
sg89
I-117
sg90
I-117
sg91
I-117
sg92
I-117
sg2
I-117
sg3
I-117
sg4
I-117
sg5
I-117
sg6
I-117
sg7
I-117
sg8
I-117
sg9
I-117
sg10
I-117
sg11
I-117
sg12
I-117
sg13
I-117
sg14
I-117
sg15
I-117
sg16
I-117
sg17
I-117
sg18
I-117
sg19
I-117
sg20
I-117
sg21
I-117
sg22
I-117
sg23
I-117
sg24
I-117
sg25
I-117
sg26
I-117
sg27
I-117
sg28
I-117
sg29
I-117
sg30
I-117
sg31
I-117
sg32
I-117
sg33
I-117
sg34
I-117
sg35
I-117
sg36
I-117
sg37
I-117
sg38
I-117
sg39
I-117
sg40
I-117
sg41
I-117
sg42
I-117
sg44
I-117
sg45
I-117
sg46
I-117
sg47
I-117
sg48
I-117
sg49
I-117
sg50
I-117
sg51
I-117
sg52
I-117
sg54
I-117
sg93
I-117
sg58
I-117
sg94
I-117
sg95
I-117
sg96
I-117
sg97
I-117
ssI74
(dp186
g77
I-118
sg78
I-118
sg79
I-118
sg80
I-118
sg81
I-118
sg82
I-118
sg83
I-118
sg84
I-118
sg85
I-118
sg86
I-118
sg87
I-118
sg88
I-118
sg89
I-118
sg90
I-118
sg91
I-118
sg92
I-118
sg2
I-118
sg3
I-118
sg4
I-118
sg5
I-118
sg6
I-118
sg7
I-118
sg8
I-118
sg9
I-118
sg10
I-118
sg11
I-118
sg12
I-118
sg13
I-118
sg14
I-118
sg15
I-118
sg16
I-118
sg17
I-118
sg18
I-118
sg19
I-118
sg20
I-118
sg21
I-118
sg22
I-118
sg23
I-118
sg24
I-118
sg25
I-118
sg26
I-118
sg27
I-118
sg28
I-118
sg29
I-118
sg30
I-118
sg31
I-118
sg32
I-118
sg33
I-118
sg34
I-118
sg35
I-118
sg36
I-118
sg37
I-118
sg38
I-118
sg39
I-118
sg40
I-118
sg41
I-118
sg42
I-118
sg44
I-118
sg45
I-118
sg46
I-118
sg47
I-118
sg48
I-118
sg49
I-118
sg50
I-118
sg51
I-118
sg52
I-118
sg54
I-118
sg93
I-118
sg58
I-118
sg94
I-118
sg95
I-118
sg96
I-118
sg97
I-118
ssI75
(dp187
VSTRING_LITERAL
p188
I148
sVINTERPOL_START
p189
I149
sVSTRING_END
p190
I-130
ssI76
(dp191
g42
I18
sg43
I59
sg44
I60
sg45
I51
sg95
I-130
sg96
I-130
sg46
I69
sg47
I70
sg48
I71
sg49
I72
sg50
I73
sg51
I74
sg52
I75
sg53
I76
sg162
I135
ssI77
(dp192
g2
I-2
sg3
I-2
sg4
I-2
sg5
I-2
sg6
I-2
sg7
I-2
sg8
I-2
sg9
I-2
sg10
I-2
sg11
I-2
sg12
I-2
sg13
I-2
sg14
I-2
sg15
I-2
sg16
I-2
sg17
I-2
sg18
I-2
sg19
I-2
sg20
I-2
sg21
I-2
sg22
I-2
sg23
I-2
sg24
I-2
sg25
I-2
sg26
I-2
sg27
I-2
sg28
I-2
sg29
I-2
sg30
I-2
sg31
I-2
sg32
I-2
sg33
I-2
sg34
I-2
sg35
I-2
sg36
I-2
sg37
I-2
sg38
I-2
sg39
I-2
sg40
I-2
sg41
I-2
sg42
I-2
sg43
I-2
sg44
I-2
sg45
I-2
sg46
I-2
sg47
I-2
sg48
I-2
sg49
I-2
sg50
I-2
sg51
I-2
sg52
I-2
sg53
I-2
sg54
I-2
sg58
I-2
ssI78
(dp193
g2
I-3
sg3
I-3
sg4
I-3
sg5
I-3
sg6
I-3
sg7
I-3
sg8
I-3
sg9
I-3
sg10
I-3
sg11
I-3
sg12
I-3
sg13
I-3
sg14
I-3
sg15
I-3
sg16
I-3
sg17
I-3
sg18
I-3
sg19
I-3
sg20
I-3
sg21
I-3
sg22
I-3
sg23
I-3
sg24
I-3
sg25
I-3
sg26
I-3
sg27
I-3
sg28
I-3
sg29
I-3
sg30
I-3
sg31
I-3
sg32
I-3
sg33
I-3
sg34
I-3
sg35
I-3
sg36
I-3
sg37
I-3
sg38
I-3
sg39
I-3
sg40
I-3
sg41
I-3
sg42
I-3
sg43
I-3
sg44
I-3
sg45
I-3
sg46
I-3
sg47
I-3
sg48
I-3
sg49
I-3
sg50
I-3
sg51
I-3
sg52
I-3
sg53
I-3
sg54
I-3
sg58
I-3
ssI79
(dp194
g58
I153
sg2
I16
sg3
I17
sg4
I20
sg5
I21
sg6
I22
sg7
I23
sg8
I24
sg9
I25
sg10
I26
sg11
I27
sg12
I28
sg13
I29
sg14
I30
sg15
I31
sg16
I32
sg17
I33
sg18
I34
sg19
I35
sg20
I36
sg21
I37
sg22
I38
sg23
I39
sg24
I40
sg25
I41
sg26
I42
sg27
I43
sg28
I44
sg29
I45
sg30
I46
sg31
I47
sg32
I48
sg33
I49
sg34
I50
sg35
I52
sg36
I53
sg37
I54
sg38
I55
sg39
I56
sg40
I57
sg41
I58
sg42
I18
sg43
I59
sg44
I60
sg45
I51
sg46
I69
sg47
I70
sg48
I71
sg49
I72
sg50
I73
sg51
I74
sg52
I75
sg53
I76
ssI80
(dp195
VRBRACE
p196
I154
sg72
I155
ssI81
(dp197
g58
I-6
sg2
I-6
sg3
I-6
sg4
I-6
sg5
I-6
sg6
I-6
sg7
I-6
sg8
I-6
sg9
I-6
sg10
I-6
sg11
I-6
sg12
I-6
sg13
I-6
sg14
I-6
sg15
I-6
sg16
I-6
sg17
I-6
sg18
I-6
sg19
I-6
sg20
I-6
sg21
I-6
sg22
I-6
sg23
I-6
sg24
I-6
sg25
I-6
sg26
I-6
sg27
I-6
sg28
I-6
sg29
I-6
sg30
I-6
sg31
I-6
sg32
I-6
sg33
I-6
sg34
I-6
sg35
I-6
sg36
I-6
sg37
I-6
sg38
I-6
sg39
I-6
sg40
I-6
sg41
I-6
sg42
I-6
sg43
I-6
sg44
I-6
sg45
I-6
sg46
I-6
sg47
I-6
sg48
I-6
sg49
I-6
sg50
I-6
sg51
I-6
sg52
I-6
sg53
I-6
sg72
I-111
ssI82
(dp198
g196
I-110
sg72
I-110
ssI83
(dp199
g93
I156
sg58
I-72
sg2
I-72
sg3
I-72
sg4
I-72
sg5
I-72
sg6
I-72
sg7
I-72
sg8
I-72
sg9
I-72
sg10
I-72
sg11
I-72
sg12
I-72
sg13
I-72
sg14
I-72
sg15
I-72
sg16
I-72
sg17
I-72
sg18
I-72
sg19
I-72
sg20
I-72
sg21
I-72
sg22
I-72
sg23
I-72
sg24
I-72
sg25
I-72
sg26
I-72
sg27
I-72
sg28
I-72
sg29
I-72
sg30
I-72
sg31
I-72
sg32
I-72
sg33
I-72
sg34
I-72
sg35
I-72
sg36
I-72
sg37
I-72
sg38
I-72
sg39
I-72
sg40
I-72
sg41
I-72
sg42
I-72
sg43
I88
sg44
I-72
sg45
I-72
sg46
I-72
sg47
I-72
sg48
I-72
sg49
I-72
sg50
I-72
sg51
I-72
sg52
I-72
sg53
I102
sg77
I87
sg79
I89
sg80
I90
sg81
I91
sg82
I92
sg83
I93
sg84
I94
sg85
I95
sg86
I96
sg87
I97
sg88
I98
sg89
I99
sg90
I100
sg91
I101
ssI84
(dp200
VASSIGN
p201
I157
ssI85
(dp202
g42
I18
sg43
I59
sg44
I60
sg45
I51
sg46
I69
sg47
I70
sg48
I71
sg49
I72
sg50
I73
sg51
I74
sg52
I75
sg53
I76
sg162
I135
ssI86
(dp203
VRPAREN
p204
I-130
sg42
I18
sg43
I59
sg44
I60
sg45
I51
sg46
I69
sg47
I70
sg48
I71
sg49
I72
sg50
I73
sg51
I74
sg52
I75
sg53
I76
sg162
I135
ssI87
(dp205
g42
I18
sg43
I59
sg44
I60
sg45
I51
sg46
I69
sg47
I70
sg48
I71
sg49
I72
sg50
I73
sg51
I74
sg52
I75
sg53
I76
sg162
I135
ssI88
(dp206
g42
I18
sg43
I59
sg44
I60
sg45
I51
sg46
I69
sg47
I70
sg48
I71
sg49
I72
sg50
I73
sg51
I74
sg52
I75
sg53
I76
sg162
I135
ssI89
(dp207
g42
I18
sg43
I59
sg44
I60
sg45
I51
sg46
I69
sg47
I70
sg48
I71
sg49
I72
sg50
I73
sg51
I74
sg52
I75
sg53
I76
sg162
I135
ssI90
(dp208
g42
I18
sg43
I59
sg44
I60
sg45
I51
sg46
I69
sg47
I70
sg48
I71
sg49
I72
sg50
I73
sg51
I74
sg52
I75
sg53
I76
sg162
I135
ssI91
(dp209
g42
I18
sg43
I59
sg44
I60
sg45
I51
sg46
I69
sg47
I70
sg48
I71
sg49
I72
sg50
I73
sg51
I74
sg52
I75
sg53
I76
sg162
I135
ssI92
(dp210
g42
I18
sg43
I59
sg44
I60
sg45
I51
sg46
I69
sg47
I70
sg48
I71
sg49
I72
sg50
I73
sg51
I74
sg52
I75
sg53
I76
sg162
I135
ssI93
(dp211
g42
I18
sg43
I59
sg44
I60
sg45
I51
sg46
I69
sg47
I70
sg48
I71
sg49
I72
sg50
I73
sg51
I74
sg52
I75
sg53
I76
sg162
I135
ssI94
(dp212
g42
I18
sg43
I59
sg44
I60
sg45
I51
sg46
I69
sg47
I70
sg48
I71
sg49
I72
sg50
I73
sg51
I74
sg52
I75
sg53
I76
sg162
I135
ssI95
(dp213
g42
I18
sg43
I59
sg44
I60
sg45
I51
sg46
I69
sg47
I70
sg48
I71
sg49
I72
sg50
I73
sg51
I74
sg52
I75
sg53
I76
sg162
I135
ssI96
(dp214
g42
I18
sg43
I59
sg44
I60
sg45
I51
sg46
I69
sg47
I70
sg48
I71
sg49
I72
sg50
I73
sg51
I74
sg52
I75
sg53
I76
sg162
I135
ssI97
(dp215
g42
I18
sg43
I59
sg44
I60
sg45
I51
sg46
I69
sg47
I70
sg48
I71
sg49
I72
sg50
I73
sg51
I74
sg52
I75
sg53
I76
sg162
I135
ssI98
(dp216
g42
I18
sg43
I59
sg44
I60
sg45
I51
sg46
I69
sg47
I70
sg48
I71
sg49
I72
sg50
I73
sg51
I74
sg52
I75
sg53
I76
sg162
I135
ssI99
(dp217
g42
I18
sg43
I59
sg44
I60
sg45
I51
sg46
I69
sg47
I70
sg48
I71
sg49
I72
sg50
I73
sg51
I74
sg52
I75
sg53
I76
sg162
I135
ssI100
(dp218
g42
I18
sg43
I59
sg44
I60
sg45
I51
sg46
I69
sg47
I70
sg48
I71
sg49
I72
sg50
I73
sg51
I74
sg52
I75
sg53
I76
sg162
I135
ssI101
(dp219
VID
p220
I177
ssI102
(dp221
g42
I18
sg43
I59
sg44
I60
sg45
I51
sg46
I69
sg47
I70
sg48
I71
sg49
I72
sg50
I73
sg51
I74
sg52
I75
sg53
I76
sg162
I135
ssI103
(dp222
VASSIGN
p223
I179
ssI104
(dp224
VASSIGN
p225
I180
ssI105
(dp226
VASSIGN
p227
I181
ssI106
(dp228
VASSIGN
p229
I182
ssI107
(dp230
VASSIGN
p231
I183
ssI108
(dp232
VASSIGN
p233
I184
ssI109
(dp234
VASSIGN
p235
I185
ssI110
(dp236
VASSIGN
p237
I186
ssI111
(dp238
VASSIGN
p239
I187
ssI112
(dp240
VASSIGN
p241
I188
ssI113
(dp242
VASSIGN
p243
I189
ssI114
(dp244
VASSIGN
p245
I190
ssI115
(dp246
VASSIGN
p247
I191
ssI116
(dp248
VASSIGN
p249
I192
ssI117
(dp250
VASSIGN
p251
I193
ssI118
(dp252
VASSIGN
p253
I194
ssI119
(dp254
VASSIGN
p255
I195
ssI120
(dp256
VASSIGN
p257
I196
ssI121
(dp258
VASSIGN
p259
I197
ssI122
(dp260
VASSIGN
p261
I198
ssI123
(dp262
VASSIGN
p263
I199
ssI124
(dp264
VASSIGN
p265
I200
ssI125
(dp266
VASSIGN
p267
I201
ssI126
(dp268
VASSIGN
p269
I202
ssI127
(dp270
VASSIGN
p271
I203
ssI128
(dp272
VASSIGN
p273
I204
ssI129
(dp274
VASSIGN
p275
I205
ssI130
(dp276
VASSIGN
p277
I206
ssI131
(dp278
VASSIGN
p279
I207
ssI132
(dp280
VASSIGN
p281
I208
ssI133
(dp282
VLPAREN
p283
I209
ssI134
(dp284
g94
I210
sg77
I87
sg78
I88
sg79
I89
sg80
I90
sg81
I91
sg82
I92
sg83
I93
sg84
I94
sg85
I95
sg86
I96
sg87
I97
sg88
I98
sg89
I99
sg90
I100
sg91
I101
sg92
I102
ssI135
(dp285
g196
I-130
sg72
I-130
sg42
I18
sg43
I59
sg44
I60
sg45
I51
sg46
I69
sg47
I70
sg48
I71
sg49
I72
sg50
I73
sg51
I74
sg52
I75
sg53
I76
sg162
I135
ssI136
(dp286
g2
I-56
sg3
I-56
sg4
I-56
sg5
I-56
sg6
I-56
sg7
I-56
sg8
I-56
sg9
I-56
sg10
I-56
sg11
I-56
sg12
I-56
sg13
I-56
sg14
I-56
sg15
I-56
sg16
I-56
sg17
I-56
sg18
I-56
sg19
I-56
sg20
I-56
sg21
I-56
sg22
I-56
sg23
I-56
sg24
I-56
sg25
I-56
sg26
I-56
sg27
I-56
sg28
I-56
sg29
I-56
sg30
I-56
sg31
I-56
sg32
I-56
sg33
I-56
sg34
I-56
sg35
I-56
sg36
I-56
sg37
I-56
sg38
I-56
sg39
I-56
sg40
I-56
sg41
I-56
sg42
I-56
sg43
I88
sg44
I-56
sg45
I-56
sg46
I-56
sg47
I-56
sg48
I-56
sg49
I-56
sg50
I-56
sg51
I-56
sg52
I-56
sg53
I102
sg54
I-56
sg58
I-56
sg77
I87
sg79
I89
sg80
I90
sg81
I91
sg82
I92
sg83
I93
sg84
I94
sg85
I95
sg86
I96
sg87
I97
sg88
I98
sg89
I99
sg90
I100
sg91
I101
sVCOLON
p287
I214
ssI137
(dp288
g2
I-58
sg3
I-58
sg4
I-58
sg5
I-58
sg6
I-58
sg7
I-58
sg8
I-58
sg9
I-58
sg10
I-58
sg11
I-58
sg12
I-58
sg13
I-58
sg14
I-58
sg15
I-58
sg16
I-58
sg17
I-58
sg18
I-58
sg19
I-58
sg20
I-58
sg21
I-58
sg22
I-58
sg23
I-58
sg24
I-58
sg25
I-58
sg26
I-58
sg27
I-58
sg28
I-58
sg29
I-58
sg30
I-58
sg31
I-58
sg32
I-58
sg33
I-58
sg34
I-58
sg35
I-58
sg36
I-58
sg37
I-58
sg38
I-58
sg39
I-58
sg40
I-58
sg41
I-58
sg42
I-58
sg43
I88
sg44
I-58
sg45
I-58
sg46
I-58
sg47
I-58
sg48
I-58
sg49
I-58
sg50
I-58
sg51
I-58
sg52
I-58
sg53
I102
sg54
I-58
sg58
I-58
sg77
I87
sg79
I89
sg80
I90
sg81
I91
sg82
I92
sg83
I93
sg84
I94
sg85
I95
sg86
I96
sg87
I97
sg88
I98
sg89
I99
sg90
I100
sg91
I101
sg287
I214
ssI138
(dp289
g2
I-60
sg3
I-60
sg4
I-60
sg5
I-60
sg6
I-60
sg7
I-60
sg8
I-60
sg9
I-60
sg10
I-60
sg11
I-60
sg12
I-60
sg13
I-60
sg14
I-60
sg15
I-60
sg16
I-60
sg17
I-60
sg18
I-60
sg19
I-60
sg20
I-60
sg21
I-60
sg22
I-60
sg23
I-60
sg24
I-60
sg25
I-60
sg26
I-60
sg27
I-60
sg28
I-60
sg29
I-60
sg30
I-60
sg31
I-60
sg32
I-60
sg33
I-60
sg34
I-60
sg35
I-60
sg36
I-60
sg37
I-60
sg38
I-60
sg39
I-60
sg40
I-60
sg41
I-60
sg42
I-60
sg43
I-60
sg44
I-60
sg45
I-60
sg46
I-60
sg47
I-60
sg48
I-60
sg49
I-60
sg50
I-60
sg51
I-60
sg52
I-60
sg53
I-60
sg54
I-60
sg58
I-60
sVASSIGN
p290
I217
ssI139
(dp291
g77
I87
sg78
I88
sg79
I89
sg80
I90
sg81
I91
sg82
I92
sg83
I93
sg84
I94
sg85
I95
sg86
I96
sg87
I97
sg88
I98
sg89
I99
sg90
I100
sg91
I101
sg92
I102
sg2
I219
ssI140
(dp292
VIS
p293
I220
sg77
I87
sg78
I88
sg79
I89
sg80
I90
sg81
I91
sg82
I92
sg83
I93
sg84
I94
sg85
I95
sg86
I96
sg87
I97
sg88
I98
sg89
I99
sg91
I101
sg92
I102
ssI141
(dp294
g77
I87
sg78
I88
sg79
I89
sg80
I90
sg81
I91
sg82
I92
sg83
I93
sg84
I94
sg85
I95
sg86
I96
sg87
I97
sg88
I98
sg89
I99
sg90
I100
sg91
I101
sg92
I102
sg2
I219
ssI142
(dp295
g2
I-70
sg3
I-70
sg4
I-70
sg5
I-70
sg6
I-70
sg7
I-70
sg8
I-70
sg9
I-70
sg10
I-70
sg11
I-70
sg12
I-70
sg13
I-70
sg14
I-70
sg15
I-70
sg16
I-70
sg17
I-70
sg18
I-70
sg19
I-70
sg20
I-70
sg21
I-70
sg22
I-70
sg23
I-70
sg24
I-70
sg25
I-70
sg26
I-70
sg27
I-70
sg28
I-70
sg29
I-70
sg30
I-70
sg31
I-70
sg32
I-70
sg33
I-70
sg34
I-70
sg35
I-70
sg36
I-70
sg37
I-70
sg38
I-70
sg39
I-70
sg40
I-70
sg41
I-70
sg42
I-70
sg43
I88
sg44
I-70
sg45
I-70
sg46
I-70
sg47
I-70
sg48
I-70
sg49
I-70
sg50
I-70
sg51
I-70
sg52
I-70
sg53
I102
sg54
I-70
sg58
I-70
sg77
I87
sg79
I89
sg80
I90
sg81
I91
sg82
I92
sg83
I93
sg84
I94
sg85
I95
sg86
I96
sg87
I97
sg88
I98
sg89
I99
sg90
I100
sg91
I101
ssI143
(dp296
g77
I-88
sg78
I-88
sg79
I-88
sg80
I-88
sg81
I-88
sg82
I-88
sg83
I-88
sg84
I-88
sg85
I-88
sg86
I-88
sg87
I-88
sg88
I-88
sg89
I-88
sg90
I-88
sg91
I-88
sg92
I102
sg2
I-88
sg3
I-88
sg4
I-88
sg5
I-88
sg6
I-88
sg7
I-88
sg8
I-88
sg9
I-88
sg10
I-88
sg11
I-88
sg12
I-88
sg13
I-88
sg14
I-88
sg15
I-88
sg16
I-88
sg17
I-88
sg18
I-88
sg19
I-88
sg20
I-88
sg21
I-88
sg22
I-88
sg23
I-88
sg24
I-88
sg25
I-88
sg26
I-88
sg27
I-88
sg28
I-88
sg29
I-88
sg30
I-88
sg31
I-88
sg32
I-88
sg33
I-88
sg34
I-88
sg35
I-88
sg36
I-88
sg37
I-88
sg38
I-88
sg39
I-88
sg40
I-88
sg41
I-88
sg42
I-88
sg44
I-88
sg45
I-88
sg46
I-88
sg47
I-88
sg48
I-88
sg49
I-88
sg50
I-88
sg51
I-88
sg52
I-88
sg54
I-88
sg93
I-88
sg58
I-88
sg94
I-88
sg95
I-88
sg96
I-88
sg97
I-88
ssI144
(dp297
g77
I-89
sg78
I-89
sg79
I-89
sg80
I-89
sg81
I-89
sg82
I-89
sg83
I-89
sg84
I-89
sg85
I-89
sg86
I-89
sg87
I-89
sg88
I-89
sg89
I-89
sg90
I100
sg91
I-89
sg92
I102
sg2
I-89
sg3
I-89
sg4
I-89
sg5
I-89
sg6
I-89
sg7
I-89
sg8
I-89
sg9
I-89
sg10
I-89
sg11
I-89
sg12
I-89
sg13
I-89
sg14
I-89
sg15
I-89
sg16
I-89
sg17
I-89
sg18
I-89
sg19
I-89
sg20
I-89
sg21
I-89
sg22
I-89
sg23
I-89
sg24
I-89
sg25
I-89
sg26
I-89
sg27
I-89
sg28
I-89
sg29
I-89
sg30
I-89
sg31
I-89
sg32
I-89
sg33
I-89
sg34
I-89
sg35
I-89
sg36
I-89
sg37
I-89
sg38
I-89
sg39
I-89
sg40
I-89
sg41
I-89
sg42
I-89
sg44
I-89
sg45
I-89
sg46
I-89
sg47
I-89
sg48
I-89
sg49
I-89
sg50
I-89
sg51
I-89
sg52
I-89
sg54
I-89
sg93
I-89
sg58
I-89
sg94
I-89
sg95
I-89
sg96
I-89
sg97
I-89
ssI145
(dp298
g190
I222
sg188
I148
sg189
I149
ssI146
(dp299
g190
I-126
sg188
I-126
sg189
I-126
ssI147
(dp300
g190
I-127
sg188
I-127
sg189
I-127
ssI148
(dp301
g190
I-128
sg188
I-128
sg189
I-128
ssI149
(dp302
g42
I18
sg43
I59
sg44
I60
sg45
I51
sg46
I69
sg47
I70
sg48
I71
sg49
I72
sg50
I73
sg51
I74
sg52
I75
sg53
I76
sg162
I135
ssI150
(dp303
g95
I225
sg96
I226
ssI151
(dp304
g95
I-106
sg96
I-106
sg77
I87
sg78
I88
sg79
I89
sg80
I90
sg81
I91
sg82
I92
sg83
I93
sg84
I94
sg85
I95
sg86
I96
sg87
I97
sg88
I98
sg89
I99
sg90
I100
sg91
I101
sg92
I102
ssI152
(dp305
g95
I-107
sg96
I-107
ssI153
(dp306
g2
I-7
sg3
I-7
sg4
I-7
sg5
I-7
sg6
I-7
sg7
I-7
sg8
I-7
sg9
I-7
sg10
I-7
sg11
I-7
sg12
I-7
sg13
I-7
sg14
I-7
sg15
I-7
sg16
I-7
sg17
I-7
sg18
I-7
sg19
I-7
sg20
I-7
sg21
I-7
sg22
I-7
sg23
I-7
sg24
I-7
sg25
I-7
sg26
I-7
sg27
I-7
sg28
I-7
sg29
I-7
sg30
I-7
sg31
I-7
sg32
I-7
sg33
I-7
sg34
I-7
sg35
I-7
sg36
I-7
sg37
I-7
sg38
I-7
sg39
I-7
sg40
I-7
sg41
I-7
sg42
I-7
sg43
I-7
sg44
I-7
sg45
I-7
sg46
I-7
sg47
I-7
sg48
I-7
sg49
I-7
sg50
I-7
sg51
I-7
sg52
I-7
sg53
I-7
sg54
I-7
sg58
I-7
sVELSE
p307
I-7
ssI154
(dp308
g77
I-108
sg78
I-108
sg79
I-108
sg80
I-108
sg81
I-108
sg82
I-108
sg83
I-108
sg84
I-108
sg85
I-108
sg86
I-108
sg87
I-108
sg88
I-108
sg89
I-108
sg90
I-108
sg91
I-108
sg92
I-108
sg2
I-108
sg3
I-108
sg4
I-108
sg5
I-108
sg6
I-108
sg7
I-108
sg8
I-108
sg9
I-108
sg10
I-108
sg11
I-108
sg12
I-108
sg13
I-108
sg14
I-108
sg15
I-108
sg16
I-108
sg17
I-108
sg18
I-108
sg19
I-108
sg20
I-108
sg21
I-108
sg22
I-108
sg23
I-108
sg24
I-108
sg25
I-108
sg26
I-108
sg27
I-108
sg28
I-108
sg29
I-108
sg30
I-108
sg31
I-108
sg32
I-108
sg33
I-108
sg34
I-108
sg35
I-108
sg36
I-108
sg37
I-108
sg38
I-108
sg39
I-108
sg40
I-108
sg41
I-108
sg42
I-108
sg44
I-108
sg45
I-108
sg46
I-108
sg47
I-108
sg48
I-108
sg49
I-108
sg50
I-108
sg51
I-108
sg52
I-108
sg54
I-108
sg93
I-108
sg58
I-108
sg94
I-108
sg95
I-108
sg96
I-108
sg97
I-108
ssI155
(dp309
g42
I18
sg43
I59
sg44
I60
sg45
I51
sg46
I69
sg47
I70
sg48
I71
sg49
I72
sg50
I73
sg51
I74
sg52
I75
sg53
I76
sg162
I135
ssI156
(dp310
g42
I18
sg43
I59
sg44
I60
sg45
I51
sg46
I69
sg47
I70
sg48
I71
sg49
I72
sg50
I73
sg51
I74
sg52
I75
sg53
I76
sg162
I135
ssI157
(dp311
g42
I18
sg43
I59
sg44
I60
sg45
I51
sg46
I69
sg47
I70
sg48
I71
sg49
I72
sg50
I73
sg51
I74
sg52
I75
sg53
I76
sg162
I135
ssI158
(dp312
g77
I87
sg78
I88
sg79
I89
sg80
I90
sg81
I91
sg82
I92
sg83
I93
sg84
I94
sg85
I95
sg86
I96
sg87
I97
sg88
I98
sg89
I99
sg90
I100
sg91
I101
sg92
I102
sg2
I-73
sg3
I-73
sg4
I-73
sg5
I-73
sg6
I-73
sg7
I-73
sg8
I-73
sg9
I-73
sg10
I-73
sg11
I-73
sg12
I-73
sg13
I-73
sg14
I-73
sg15
I-73
sg16
I-73
sg17
I-73
sg18
I-73
sg19
I-73
sg20
I-73
sg21
I-73
sg22
I-73
sg23
I-73
sg24
I-73
sg25
I-73
sg26
I-73
sg27
I-73
sg28
I-73
sg29
I-73
sg30
I-73
sg31
I-73
sg32
I-73
sg33
I-73
sg34
I-73
sg35
I-73
sg36
I-73
sg37
I-73
sg38
I-73
sg39
I-73
sg40
I-73
sg41
I-73
sg42
I-73
sg44
I-73
sg45
I-73
sg46
I-73
sg47
I-73
sg48
I-73
sg49
I-73
sg50
I-73
sg51
I-73
sg52
I-73
sg54
I-73
sg93
I-73
sg58
I-73
sg94
I-73
sg95
I-73
sg96
I-73
sg97
I-73
ssI159
(dp313
g204
I230
ssI160
(dp314
g204
I-120
sVCOMMA
p315
I231
ssI161
(dp316
g204
I-121
ssI162
(dp317
g315
I-123
sg204
I-123
sg77
I87
sg78
I88
sg79
I89
sg80
I90
sg81
I91
sg82
I92
sg83
I93
sg84
I94
sg85
I95
sg86
I96
sg87
I97
sg88
I98
sg89
I99
sg90
I100
sg91
I101
sg92
I102
ssI163
(dp318
g77
I-74
sg78
I-74
sg79
I89
sg80
I90
sg81
I91
sg82
I-74
sg83
I-74
sg84
I-74
sg85
I-74
sg86
I-74
sg87
I-74
sg88
I-74
sg89
I-74
sg90
I100
sg91
I-74
sg92
I102
sg2
I-74
sg3
I-74
sg4
I-74
sg5
I-74
sg6
I-74
sg7
I-74
sg8
I-74
sg9
I-74
sg10
I-74
sg11
I-74
sg12
I-74
sg13
I-74
sg14
I-74
sg15
I-74
sg16
I-74
sg17
I-74
sg18
I-74
sg19
I-74
sg20
I-74
sg21
I-74
sg22
I-74
sg23
I-74
sg24
I-74
sg25
I-74
sg26
I-74
sg27
I-74
sg28
I-74
sg29
I-74
sg30
I-74
sg31
I-74
sg32
I-74
sg33
I-74
sg34
I-74
sg35
I-74
sg36
I-74
sg37
I-74
sg38
I-74
sg39
I-74
sg40
I-74
sg41
I-74
sg42
I-74
sg44
I-74
sg45
I-74
sg46
I-74
sg47
I-74
sg48
I-74
sg49
I-74
sg50
I-74
sg51
I-74
sg52
I-74
sg54
I-74
sg93
I-74
sg58
I-74
sg94
I-74
sg95
I-74
sg96
I-74
sg97
I-74
ssI164
(dp319
g77
I-75
sg78
I-75
sg79
I89
sg80
I90
sg81
I91
sg82
I-75
sg83
I-75
sg84
I-75
sg85
I-75
sg86
I-75
sg87
I-75
sg88
I-75
sg89
I-75
sg90
I100
sg91
I-75
sg92
I102
sg2
I-75
sg3
I-75
sg4
I-75
sg5
I-75
sg6
I-75
sg7
I-75
sg8
I-75
sg9
I-75
sg10
I-75
sg11
I-75
sg12
I-75
sg13
I-75
sg14
I-75
sg15
I-75
sg16
I-75
sg17
I-75
sg18
I-75
sg19
I-75
sg20
I-75
sg21
I-75
sg22
I-75
sg23
I-75
sg24
I-75
sg25
I-75
sg26
I-75
sg27
I-75
sg28
I-75
sg29
I-75
sg30
I-75
sg31
I-75
sg32
I-75
sg33
I-75
sg34
I-75
sg35
I-75
sg36
I-75
sg37
I-75
sg38
I-75
sg39
I-75
sg40
I-75
sg41
I-75
sg42
I-75
sg44
I-75
sg45
I-75
sg46
I-75
sg47
I-75
sg48
I-75
sg49
I-75
sg50
I-75
sg51
I-75
sg52
I-75
sg54
I-75
sg93
I-75
sg58
I-75
sg94
I-75
sg95
I-75
sg96
I-75
sg97
I-75
ssI165
(dp320
g77
I-76
sg78
I-76
sg79
I-76
sg80
I-76
sg81
I-76
sg82
I-76
sg83
I-76
sg84
I-76
sg85
I-76
sg86
I-76
sg87
I-76
sg88
I-76
sg89
I-76
sg90
I100
sg91
I-76
sg92
I102
sg2
I-76
sg3
I-76
sg4
I-76
sg5
I-76
sg6
I-76
sg7
I-76
sg8
I-76
sg9
I-76
sg10
I-76
sg11
I-76
sg12
I-76
sg13
I-76
sg14
I-76
sg15
I-76
sg16
I-76
sg17
I-76
sg18
I-76
sg19
I-76
sg20
I-76
sg21
I-76
sg22
I-76
sg23
I-76
sg24
I-76
sg25
I-76
sg26
I-76
sg27
I-76
sg28
I-76
sg29
I-76
sg30
I-76
sg31
I-76
sg32
I-76
sg33
I-76
sg34
I-76
sg35
I-76
sg36
I-76
sg37
I-76
sg38
I-76
sg39
I-76
sg40
I-76
sg41
I-76
sg42
I-76
sg44
I-76
sg45
I-76
sg46
I-76
sg47
I-76
sg48
I-76
sg49
I-76
sg50
I-76
sg51
I-76
sg52
I-76
sg54
I-76
sg93
I-76
sg58
I-76
sg94
I-76
sg95
I-76
sg96
I-76
sg97
I-76
ssI166
(dp321
g77
I-77
sg78
I-77
sg79
I-77
sg80
I-77
sg81
I-77
sg82
I-77
sg83
I-77
sg84
I-77
sg85
I-77
sg86
I-77
sg87
I-77
sg88
I-77
sg89
I-77
sg90
I100
sg91
I-77
sg92
I102
sg2
I-77
sg3
I-77
sg4
I-77
sg5
I-77
sg6
I-77
sg7
I-77
sg8
I-77
sg9
I-77
sg10
I-77
sg11
I-77
sg12
I-77
sg13
I-77
sg14
I-77
sg15
I-77
sg16
I-77
sg17
I-77
sg18
I-77
sg19
I-77
sg20
I-77
sg21
I-77
sg22
I-77
sg23
I-77
sg24
I-77
sg25
I-77
sg26
I-77
sg27
I-77
sg28
I-77
sg29
I-77
sg30
I-77
sg31
I-77
sg32
I-77
sg33
I-77
sg34
I-77
sg35
I-77
sg36
I-77
sg37
I-77
sg38
I-77
sg39
I-77
sg40
I-77
sg41
I-77
sg42
I-77
sg44
I-77
sg45
I-77
sg46
I-77
sg47
I-77
sg48
I-77
sg49
I-77
sg50
I-77
sg51
I-77
sg52
I-77
sg54
I-77
sg93
I-77
sg58
I-77
sg94
I-77
sg95
I-77
sg96
I-77
sg97
I-77
ssI167
(dp322
g77
I-78
sg78
I-78
sg79
I-78
sg80
I-78
sg81
I-78
sg82
I-78
sg83
I-78
sg84
I-78
sg85
I-78
sg86
I-78
sg87
I-78
sg88
I-78
sg89
I-78
sg90
I100
sg91
I-78
sg92
I102
sg2
I-78
sg3
I-78
sg4
I-78
sg5
I-78
sg6
I-78
sg7
I-78
sg8
I-78
sg9
I-78
sg10
I-78
sg11
I-78
sg12
I-78
sg13
I-78
sg14
I-78
sg15
I-78
sg16
I-78
sg17
I-78
sg18
I-78
sg19
I-78
sg20
I-78
sg21
I-78
sg22
I-78
sg23
I-78
sg24
I-78
sg25
I-78
sg26
I-78
sg27
I-78
sg28
I-78
sg29
I-78
sg30
I-78
sg31
I-78
sg32
I-78
sg33
I-78
sg34
I-78
sg35
I-78
sg36
I-78
sg37
I-78
sg38
I-78
sg39
I-78
sg40
I-78
sg41
I-78
sg42
I-78
sg44
I-78
sg45
I-78
sg46
I-78
sg47
I-78
sg48
I-78
sg49
I-78
sg50
I-78
sg51
I-78
sg52
I-78
sg54
I-78
sg93
I-78
sg58
I-78
sg94
I-78
sg95
I-78
sg96
I-78
sg97
I-78
ssI168
(dp323
g77
I87
sg78
I88
sg79
I89
sg80
I90
sg81
I91
sg82
Nsg83
Nsg84
Nsg85
Nsg86
Nsg87
Nsg88
I-79
sg89
I-79
sg90
I100
sg91
I-79
sg92
I102
sg2
I-79
sg3
I-79
sg4
I-79
sg5
I-79
sg6
I-79
sg7
I-79
sg8
I-79
sg9
I-79
sg10
I-79
sg11
I-79
sg12
I-79
sg13
I-79
sg14
I-79
sg15
I-79
sg16
I-79
sg17
I-79
sg18
I-79
sg19
I-79
sg20
I-79
sg21
I-79
sg22
I-79
sg23
I-79
sg24
I-79
sg25
I-79
sg26
I-79
sg27
I-79
sg28
I-79
sg29
I-79
sg30
I-79
sg31
I-79
sg32
I-79
sg33
I-79
sg34
I-79
sg35
I-79
sg36
I-79
sg37
I-79
sg38
I-79
sg39
I-79
sg40
I-79
sg41
I-79
sg42
I-79
sg44
I-79
sg45
I-79
sg46
I-79
sg47
I-79
sg48
I-79
sg49
I-79
sg50
I-79
sg51
I-79
sg52
I-79
sg54
I-79
sg93
I-79
sg58
I-79
sg94
I-79
sg95
I-79
sg96
I-79
sg97
I-79
ssI169
(dp324
g77
I87
sg78
I88
sg79
I89
sg80
I90
sg81
I91
sg82
Nsg83
Nsg84
Nsg85
Nsg86
Nsg87
Nsg88
I-80
sg89
I-80
sg90
I100
sg91
I-80
sg92
I102
sg2
I-80
sg3
I-80
sg4
I-80
sg5
I-80
sg6
I-80
sg7
I-80
sg8
I-80
sg9
I-80
sg10
I-80
sg11
I-80
sg12
I-80
sg13
I-80
sg14
I-80
sg15
I-80
sg16
I-80
sg17
I-80
sg18
I-80
sg19
I-80
sg20
I-80
sg21
I-80
sg22
I-80
sg23
I-80
sg24
I-80
sg25
I-80
sg26
I-80
sg27
I-80
sg28
I-80
sg29
I-80
sg30
I-80
sg31
I-80
sg32
I-80
sg33
I-80
sg34
I-80
sg35
I-80
sg36
I-80
sg37
I-80
sg38
I-80
sg39
I-80
sg40
I-80
sg41
I-80
sg42
I-80
sg44
I-80
sg45
I-80
sg46
I-80
sg47
I-80
sg48
I-80
sg49
I-80
sg50
I-80
sg51
I-80
sg52
I-80
sg54
I-80
sg93
I-80
sg58
I-80
sg94
I-80
sg95
I-80
sg96
I-80
sg97
I-80
ssI170
(dp325
g77
I87
sg78
I88
sg79
I89
sg80
I90
sg81
I91
sg82
Nsg83
Nsg84
Nsg85
Nsg86
Nsg87
Nsg88
I-81
sg89
I-81
sg90
I100
sg91
I-81
sg92
I102
sg2
I-81
sg3
I-81
sg4
I-81
sg5
I-81
sg6
I-81
sg7
I-81
sg8
I-81
sg9
I-81
sg10
I-81
sg11
I-81
sg12
I-81
sg13
I-81
sg14
I-81
sg15
I-81
sg16
I-81
sg17
I-81
sg18
I-81
sg19
I-81
sg20
I-81
sg21
I-81
sg22
I-81
sg23
I-81
sg24
I-81
sg25
I-81
sg26
I-81
sg27
I-81
sg28
I-81
sg29
I-81
sg30
I-81
sg31
I-81
sg32
I-81
sg33
I-81
sg34
I-81
sg35
I-81
sg36
I-81
sg37
I-81
sg38
I-81
sg39
I-81
sg40
I-81
sg41
I-81
sg42
I-81
sg44
I-81
sg45
I-81
sg46
I-81
sg47
I-81
sg48
I-81
sg49
I-81
sg50
I-81
sg51
I-81
sg52
I-81
sg54
I-81
sg93
I-81
sg58
I-81
sg94
I-81
sg95
I-81
sg96
I-81
sg97
I-81
ssI171
(dp326
g77
I87
sg78
I88
sg79
I89
sg80
I90
sg81
I91
sg82
Nsg83
Nsg84
Nsg85
Nsg86
Nsg87
Nsg88
I-82
sg89
I-82
sg90
I100
sg91
I-82
sg92
I102
sg2
I-82
sg3
I-82
sg4
I-82
sg5
I-82
sg6
I-82
sg7
I-82
sg8
I-82
sg9
I-82
sg10
I-82
sg11
I-82
sg12
I-82
sg13
I-82
sg14
I-82
sg15
I-82
sg16
I-82
sg17
I-82
sg18
I-82
sg19
I-82
sg20
I-82
sg21
I-82
sg22
I-82
sg23
I-82
sg24
I-82
sg25
I-82
sg26
I-82
sg27
I-82
sg28
I-82
sg29
I-82
sg30
I-82
sg31
I-82
sg32
I-82
sg33
I-82
sg34
I-82
sg35
I-82
sg36
I-82
sg37
I-82
sg38
I-82
sg39
I-82
sg40
I-82
sg41
I-82
sg42
I-82
sg44
I-82
sg45
I-82
sg46
I-82
sg47
I-82
sg48
I-82
sg49
I-82
sg50
I-82
sg51
I-82
sg52
I-82
sg54
I-82
sg93
I-82
sg58
I-82
sg94
I-82
sg95
I-82
sg96
I-82
sg97
I-82
ssI172
(dp327
g77
I87
sg78
I88
sg79
I89
sg80
I90
sg81
I91
sg82
Nsg83
Nsg84
Nsg85
Nsg86
Nsg87
Nsg88
I-83
sg89
I-83
sg90
I100
sg91
I-83
sg92
I102
sg2
I-83
sg3
I-83
sg4
I-83
sg5
I-83
sg6
I-83
sg7
I-83
sg8
I-83
sg9
I-83
sg10
I-83
sg11
I-83
sg12
I-83
sg13
I-83
sg14
I-83
sg15
I-83
sg16
I-83
sg17
I-83
sg18
I-83
sg19
I-83
sg20
I-83
sg21
I-83
sg22
I-83
sg23
I-83
sg24
I-83
sg25
I-83
sg26
I-83
sg27
I-83
sg28
I-83
sg29
I-83
sg30
I-83
sg31
I-83
sg32
I-83
sg33
I-83
sg34
I-83
sg35
I-83
sg36
I-83
sg37
I-83
sg38
I-83
sg39
I-83
sg40
I-83
sg41
I-83
sg42
I-83
sg44
I-83
sg45
I-83
sg46
I-83
sg47
I-83
sg48
I-83
sg49
I-83
sg50
I-83
sg51
I-83
sg52
I-83
sg54
I-83
sg93
I-83
sg58
I-83
sg94
I-83
sg95
I-83
sg96
I-83
sg97
I-83
ssI173
(dp328
g77
I87
sg78
I88
sg79
I89
sg80
I90
sg81
I91
sg82
Nsg83
Nsg84
Nsg85
Nsg86
Nsg87
Nsg88
I-84
sg89
I-84
sg90
I100
sg91
I-84
sg92
I102
sg2
I-84
sg3
I-84
sg4
I-84
sg5
I-84
sg6
I-84
sg7
I-84
sg8
I-84
sg9
I-84
sg10
I-84
sg11
I-84
sg12
I-84
sg13
I-84
sg14
I-84
sg15
I-84
sg16
I-84
sg17
I-84
sg18
I-84
sg19
I-84
sg20
I-84
sg21
I-84
sg22
I-84
sg23
I-84
sg24
I-84
sg25
I-84
sg26
I-84
sg27
I-84
sg28
I-84
sg29
I-84
sg30
I-84
sg31
I-84
sg32
I-84
sg33
I-84
sg34
I-84
sg35
I-84
sg36
I-84
sg37
I-84
sg38
I-84
sg39
I-84
sg40
I-84
sg41
I-84
sg42
I-84
sg44
I-84
sg45
I-84
sg46
I-84
sg47
I-84
sg48
I-84
sg49
I-84
sg50
I-84
sg51
I-84
sg52
I-84
sg54
I-84
sg93
I-84
sg58
I-84
sg94
I-84
sg95
I-84
sg96
I-84
sg97
I-84
ssI174
(dp329
g77
I87
sg78
I88
sg79
I89
sg80
I90
sg81
I91
sg82
I92
sg83
I93
sg84
I94
sg85
I95
sg86
I96
sg87
I97
sg88
I-85
sg89
I-85
sg90
I100
sg91
I-85
sg92
I102
sg2
I-85
sg3
I-85
sg4
I-85
sg5
I-85
sg6
I-85
sg7
I-85
sg8
I-85
sg9
I-85
sg10
I-85
sg11
I-85
sg12
I-85
sg13
I-85
sg14
I-85
sg15
I-85
sg16
I-85
sg17
I-85
sg18
I-85
sg19
I-85
sg20
I-85
sg21
I-85
sg22
I-85
sg23
I-85
sg24
I-85
sg25
I-85
sg26
I-85
sg27
I-85
sg28
I-85
sg29
I-85
sg30
I-85
sg31
I-85
sg32
I-85
sg33
I-85
sg34
I-85
sg35
I-85
sg36
I-85
sg37
I-85
sg38
I-85
sg39
I-85
sg40
I-85
sg41
I-85
sg42
I-85
sg44
I-85
sg45
I-85
sg46
I-85
sg47
I-85
sg48
I-85
sg49
I-85
sg50
I-85
sg51
I-85
sg52
I-85
sg54
I-85
sg93
I-85
sg58
I-85
sg94
I-85
sg95
I-85
sg96
I-85
sg97
I-85
ssI175
(dp330
g77
I87
sg78
I88
sg79
I89
sg80
I90
sg81
I91
sg82
I92
sg83
I93
sg84
I94
sg85
I95
sg86
I96
sg87
I97
sg88
I98
sg89
I-86
sg90
I100
sg91
I-86
sg92
I102
sg2
I-86
sg3
I-86
sg4
I-86
sg5
I-86
sg6
I-86
sg7
I-86
sg8
I-86
sg9
I-86
sg10
I-86
sg11
I-86
sg12
I-86
sg13
I-86
sg14
I-86
sg15
I-86
sg16
I-86
sg17
I-86
sg18
I-86
sg19
I-86
sg20
I-86
sg21
I-86
sg22
I-86
sg23
I-86
sg24
I-86
sg25
I-86
sg26
I-86
sg27
I-86
sg28
I-86
sg29
I-86
sg30
I-86
sg31
I-86
sg32
I-86
sg33
I-86
sg34
I-86
sg35
I-86
sg36
I-86
sg37
I-86
sg38
I-86
sg39
I-86
sg40
I-86
sg41
I-86
sg42
I-86
sg44
I-86
sg45
I-86
sg46
I-86
sg47
I-86
sg48
I-86
sg49
I-86
sg50
I-86
sg51
I-86
sg52
I-86
sg54
I-86
sg93
I-86
sg58
I-86
sg94
I-86
sg95
I-86
sg96
I-86
sg97
I-86
ssI176
(dp331
g77
I-87
sg78
I-87
sg79
I-87
sg80
I-87
sg81
I-87
sg82
I-87
sg83
I-87
sg84
I-87
sg85
I-87
sg86
I-87
sg87
I-87
sg88
I-87
sg89
I-87
sg90
I100
sg91
I-87
sg92
I102
sg2
I-87
sg3
I-87
sg4
I-87
sg5
I-87
sg6
I-87
sg7
I-87
sg8
I-87
sg9
I-87
sg10
I-87
sg11
I-87
sg12
I-87
sg13
I-87
sg14
I-87
sg15
I-87
sg16
I-87
sg17
I-87
sg18
I-87
sg19
I-87
sg20
I-87
sg21
I-87
sg22
I-87
sg23
I-87
sg24
I-87
sg25
I-87
sg26
I-87
sg27
I-87
sg28
I-87
sg29
I-87
sg30
I-87
sg31
I-87
sg32
I-87
sg33
I-87
sg34
I-87
sg35
I-87
sg36
I-87
sg37
I-87
sg38
I-87
sg39
I-87
sg40
I-87
sg41
I-87
sg42
I-87
sg44
I-87
sg45
I-87
sg46
I-87
sg47
I-87
sg48
I-87
sg49
I-87
sg50
I-87
sg51
I-87
sg52
I-87
sg54
I-87
sg93
I-87
sg58
I-87
sg94
I-87
sg95
I-87
sg96
I-87
sg97
I-87
ssI177
(dp332
g77
I-100
sg78
I-100
sg79
I-100
sg80
I-100
sg81
I-100
sg82
I-100
sg83
I-100
sg84
I-100
sg85
I-100
sg86
I-100
sg87
I-100
sg88
I-100
sg89
I-100
sg90
I-100
sg91
I-100
sg92
I-100
sg2
I-100
sg3
I-100
sg4
I-100
sg5
I-100
sg6
I-100
sg7
I-100
sg8
I-100
sg9
I-100
sg10
I-100
sg11
I-100
sg12
I-100
sg13
I-100
sg14
I-100
sg15
I-100
sg16
I-100
sg17
I-100
sg18
I-100
sg19
I-100
sg20
I-100
sg21
I-100
sg22
I-100
sg23
I-100
sg24
I-100
sg25
I-100
sg26
I-100
sg27
I-100
sg28
I-100
sg29
I-100
sg30
I-100
sg31
I-100
sg32
I-100
sg33
I-100
sg34
I-100
sg35
I-100
sg36
I-100
sg37
I-100
sg38
I-100
sg39
I-100
sg40
I-100
sg41
I-100
sg42
I-100
sg44
I-100
sg45
I232
sg46
I-100
sg47
I-100
sg48
I-100
sg49
I-100
sg50
I-100
sg51
I-100
sg52
I-100
sg54
I-100
sg93
I-100
sg58
I-100
sg94
I-100
sg95
I-100
sg96
I-100
sg97
I-100
ssI178
(dp333
VRBRACKET
p334
I233
sVCOLON
p335
I234
sg77
I87
sg78
I88
sg79
I89
sg80
I90
sg81
I91
sg82
I92
sg83
I93
sg84
I94
sg85
I95
sg86
I96
sg87
I97
sg88
I98
sg89
I99
sg90
I100
sg91
I101
sg92
I102
ssI179
(dp336
g42
I18
sg43
I59
sg44
I60
sg45
I51
sg46
I69
sg47
I70
sg48
I71
sg49
I72
sg50
I73
sg51
I74
sg52
I75
sg53
I76
sg162
I135
ssI180
(dp337
g42
I18
sg43
I59
sg44
I60
sg45
I51
sg46
I69
sg47
I70
sg48
I71
sg49
I72
sg50
I73
sg51
I74
sg52
I75
sg53
I76
sg162
I135
ssI181
(dp338
g42
I18
sg43
I59
sg44
I60
sg45
I51
sg46
I69
sg47
I70
sg48
I71
sg49
I72
sg50
I73
sg51
I74
sg52
I75
sg53
I76
sg162
I135
ssI182
(dp339
g42
I18
sg43
I59
sg44
I60
sg45
I51
sg46
I69
sg47
I70
sg48
I71
sg49
I72
sg50
I73
sg51
I74
sg52
I75
sg53
I76
sg162
I135
ssI183
(dp340
g42
I18
sg43
I59
sg44
I60
sg45
I51
sg46
I69
sg47
I70
sg48
I71
sg49
I72
sg50
I73
sg51
I74
sg52
I75
sg53
I76
sg162
I135
ssI184
(dp341
g42
I18
sg43
I59
sg44
I60
sg45
I51
sg46
I69
sg47
I70
sg48
I71
sg49
I72
sg50
I73
sg51
I74
sg52
I75
sg53
I76
sg162
I135
ssI185
(dp342
g42
I18
sg43
I59
sg44
I60
sg45
I51
sg46
I69
sg47
I70
sg48
I71
sg49
I72
sg50
I73
sg51
I74
sg52
I75
sg53
I76
sg162
I135
ssI186
(dp343
g42
I18
sg43
I59
sg44
I60
sg45
I51
sg46
I69
sg47
I70
sg48
I71
sg49
I72
sg50
I73
sg51
I74
sg52
I75
sg53
I76
sg162
I135
ssI187
(dp344
g42
I18
sg43
I59
sg44
I60
sg45
I51
sg46
I69
sg47
I70
sg48
I71
sg49
I72
sg50
I73
sg51
I74
sg52
I75
sg53
I76
sg162
I135
ssI188
(dp345
g42
I18
sg43
I59
sg44
I60
sg45
I51
sg46
I69
sg47
I70
sg48
I71
sg49
I72
sg50
I73
sg51
I74
sg52
I75
sg53
I76
sg162
I135
ssI189
(dp346
g42
I18
sg43
I59
sg44
I60
sg45
I51
sg46
I69
sg47
I70
sg48
I71
sg49
I72
sg50
I73
sg51
I74
sg52
I75
sg53
I76
sg162
I135
ssI190
(dp347
g42
I18
sg43
I59
sg44
I60
sg45
I51
sg46
I69
sg47
I70
sg48
I71
sg49
I72
sg50
I73
sg51
I74
sg52
I75
sg53
I76
sg162
I135
ssI191
(dp348
g42
I18
sg43
I59
sg44
I60
sg45
I51
sg46
I69
sg47
I70
sg48
I71
sg49
I72
sg50
I73
sg51
I74
sg52
I75
sg53
I76
sg162
I135
ssI192
(dp349
g42
I18
sg43
I59
sg44
I60
sg45
I51
sg46
I69
sg47
I70
sg48
I71
sg49
I72
sg50
I73
sg51
I74
sg52
I75
sg53
I76
sg162
I135
ssI193
(dp350
g42
I18
sg43
I59
sg44
I60
sg45
I51
sg46
I69
sg47
I70
sg48
I71
sg49
I72
sg50
I73
sg51
I74
sg52
I75
sg53
I76
sg162
I135
ssI194
(dp351
g42
I18
sg43
I59
sg44
I60
sg45
I51
sg46
I69
sg47
I70
sg48
I71
sg49
I72
sg50
I73
sg51
I74
sg52
I75
sg53
I76
sg162
I135
ssI195
(dp352
g42
I18
sg43
I59
sg44
I60
sg45
I51
sg46
I69
sg47
I70
sg48
I71
sg49
I72
sg50
I73
sg51
I74
sg52
I75
sg53
I76
sg162
I135
ssI196
(dp353
g42
I18
sg43
I59
sg44
I60
sg45
I51
sg46
I69
sg47
I70
sg48
I71
sg49
I72
sg50
I73
sg51
I74
sg52
I75
sg53
I76
sg162
I135
ssI197
(dp354
g42
I18
sg43
I59
sg44
I60
sg45
I51
sg46
I69
sg47
I70
sg48
I71
sg49
I72
sg50
I73
sg51
I74
sg52
I75
sg53
I76
sg162
I135
ssI198
(dp355
g42
I18
sg43
I59
sg44
I60
sg45
I51
sg46
I69
sg47
I70
sg48
I71
sg49
I72
sg50
I73
sg51
I74
sg52
I75
sg53
I76
sg162
I135
ssI199
(dp356
g42
I18
sg43
I59
sg44
I60
sg45
I51
sg46
I69
sg47
I70
sg48
I71
sg49
I72
sg50
I73
sg51
I74
sg52
I75
sg53
I76
sg162
I135
ssI200
(dp357
g42
I18
sg43
I59
sg44
I60
sg45
I51
sg46
I69
sg47
I70
sg48
I71
sg49
I72
sg50
I73
sg51
I74
sg52
I75
sg53
I76
sg162
I135
ssI201
(dp358
g42
I18
sg43
I59
sg44
I60
sg45
I51
sg46
I69
sg47
I70
sg48
I71
sg49
I72
sg50
I73
sg51
I74
sg52
I75
sg53
I76
sg162
I135
ssI202
(dp359
g42
I18
sg43
I59
sg44
I60
sg45
I51
sg46
I69
sg47
I70
sg48
I71
sg49
I72
sg50
I73
sg51
I74
sg52
I75
sg53
I76
sg162
I135
ssI203
(dp360
g42
I18
sg43
I59
sg44
I60
sg45
I51
sg46
I69
sg47
I70
sg48
I71
sg49
I72
sg50
I73
sg51
I74
sg52
I75
sg53
I76
sg162
I135
ssI204
(dp361
g42
I18
sg43
I59
sg44
I60
sg45
I51
sg46
I69
sg47
I70
sg48
I71
sg49
I72
sg50
I73
sg51
I74
sg52
I75
sg53
I76
sg162
I135
ssI205
(dp362
g42
I18
sg43
I59
sg44
I60
sg45
I51
sg46
I69
sg47
I70
sg48
I71
sg49
I72
sg50
I73
sg51
I74
sg52
I75
sg53
I76
sg162
I135
ssI206
(dp363
g42
I18
sg43
I59
sg44
I60
sg45
I51
sg46
I69
sg47
I70
sg48
I71
sg49
I72
sg50
I73
sg51
I74
sg52
I75
sg53
I76
sg162
I135
ssI207
(dp364
g42
I18
sg43
I59
sg44
I60
sg45
I51
sg46
I69
sg47
I70
sg48
I71
sg49
I72
sg50
I73
sg51
I74
sg52
I75
sg53
I76
sg162
I135
ssI208
(dp365
g42
I18
sg43
I59
sg44
I60
sg45
I51
sg46
I69
sg47
I70
sg48
I71
sg49
I72
sg50
I73
sg51
I74
sg52
I75
sg53
I76
sg162
I135
ssI209
(dp366
VRPAREN
p367
I-130
sVID
p368
I265
ssI210
(dp369
g77
I-90
sg78
I-90
sg79
I-90
sg80
I-90
sg81
I-90
sg82
I-90
sg83
I-90
sg84
I-90
sg85
I-90
sg86
I-90
sg87
I-90
sg88
I-90
sg89
I-90
sg90
I-90
sg91
I-90
sg92
I-90
sg2
I-90
sg3
I-90
sg4
I-90
sg5
I-90
sg6
I-90
sg7
I-90
sg8
I-90
sg9
I-90
sg10
I-90
sg11
I-90
sg12
I-90
sg13
I-90
sg14
I-90
sg15
I-90
sg16
I-90
sg17
I-90
sg18
I-90
sg19
I-90
sg20
I-90
sg21
I-90
sg22
I-90
sg23
I-90
sg24
I-90
sg25
I-90
sg26
I-90
sg27
I-90
sg28
I-90
sg29
I-90
sg30
I-90
sg31
I-90
sg32
I-90
sg33
I-90
sg34
I-90
sg35
I-90
sg36
I-90
sg37
I-90
sg38
I-90
sg39
I-90
sg40
I-90
sg41
I-90
sg42
I-90
sg44
I-90
sg45
I-90
sg46
I-90
sg47
I-90
sg48
I-90
sg49
I-90
sg50
I-90
sg51
I-90
sg52
I-90
sg54
I-90
sg93
I-90
sg58
I-90
sg94
I-90
sg95
I-90
sg96
I-90
sg97
I-90
ssI211
(dp370
g196
I-111
sg72
I-111
ssI212
(dp371
g93
I156
sg77
I87
sg78
I88
sg79
I89
sg80
I90
sg81
I91
sg82
I92
sg83
I93
sg84
I94
sg85
I95
sg86
I96
sg87
I97
sg88
I98
sg89
I99
sg90
I100
sg91
I101
sg92
I102
ssI213
(dp372
g2
I-55
sg3
I-55
sg4
I-55
sg5
I-55
sg6
I-55
sg7
I-55
sg8
I-55
sg9
I-55
sg10
I-55
sg11
I-55
sg12
I-55
sg13
I-55
sg14
I-55
sg15
I-55
sg16
I-55
sg17
I-55
sg18
I-55
sg19
I-55
sg20
I-55
sg21
I-55
sg22
I-55
sg23
I-55
sg24
I-55
sg25
I-55
sg26
I-55
sg27
I-55
sg28
I-55
sg29
I-55
sg30
I-55
sg31
I-55
sg32
I-55
sg33
I-55
sg34
I-55
sg35
I-55
sg36
I-55
sg37
I-55
sg38
I-55
sg39
I-55
sg40
I-55
sg41
I-55
sg42
I-55
sg43
I-55
sg44
I-55
sg45
I-55
sg46
I-55
sg47
I-55
sg48
I-55
sg49
I-55
sg50
I-55
sg51
I-55
sg52
I-55
sg53
I-55
sg54
I-55
sg58
I-55
ssI214
(dp373
g42
I18
sg43
I59
sg44
I60
sg45
I51
sg46
I69
sg47
I70
sg48
I71
sg49
I72
sg50
I73
sg51
I74
sg52
I75
sg53
I76
sg162
I135
ssI215
(dp374
g2
I-57
sg3
I-57
sg4
I-57
sg5
I-57
sg6
I-57
sg7
I-57
sg8
I-57
sg9
I-57
sg10
I-57
sg11
I-57
sg12
I-57
sg13
I-57
sg14
I-57
sg15
I-57
sg16
I-57
sg17
I-57
sg18
I-57
sg19
I-57
sg20
I-57
sg21
I-57
sg22
I-57
sg23
I-57
sg24
I-57
sg25
I-57
sg26
I-57
sg27
I-57
sg28
I-57
sg29
I-57
sg30
I-57
sg31
I-57
sg32
I-57
sg33
I-57
sg34
I-57
sg35
I-57
sg36
I-57
sg37
I-57
sg38
I-57
sg39
I-57
sg40
I-57
sg41
I-57
sg42
I-57
sg43
I-57
sg44
I-57
sg45
I-57
sg46
I-57
sg47
I-57
sg48
I-57
sg49
I-57
sg50
I-57
sg51
I-57
sg52
I-57
sg53
I-57
sg54
I-57
sg58
I-57
ssI216
(dp375
g2
I-59
sg3
I-59
sg4
I-59
sg5
I-59
sg6
I-59
sg7
I-59
sg8
I-59
sg9
I-59
sg10
I-59
sg11
I-59
sg12
I-59
sg13
I-59
sg14
I-59
sg15
I-59
sg16
I-59
sg17
I-59
sg18
I-59
sg19
I-59
sg20
I-59
sg21
I-59
sg22
I-59
sg23
I-59
sg24
I-59
sg25
I-59
sg26
I-59
sg27
I-59
sg28
I-59
sg29
I-59
sg30
I-59
sg31
I-59
sg32
I-59
sg33
I-59
sg34
I-59
sg35
I-59
sg36
I-59
sg37
I-59
sg38
I-59
sg39
I-59
sg40
I-59
sg41
I-59
sg42
I-59
sg43
I-59
sg44
I-59
sg45
I-59
sg46
I-59
sg47
I-59
sg48
I-59
sg49
I-59
sg50
I-59
sg51
I-59
sg52
I-59
sg53
I-59
sg54
I-59
sg58
I-59
ssI217
(dp376
g42
I18
sg43
I59
sg44
I60
sg45
I51
sg46
I69
sg47
I70
sg48
I71
sg49
I72
sg50
I73
sg51
I74
sg52
I75
sg53
I76
sg162
I135
ssI218
(dp377
g307
I273
sg2
I-130
sg3
I-130
sg4
I-130
sg5
I-130
sg6
I-130
sg7
I-130
sg8
I-130
sg9
I-130
sg10
I-130
sg11
I-130
sg12
I-130
sg13
I-130
sg14
I-130
sg15
I-130
sg16
I-130
sg17
I-130
sg18
I-130
sg19
I-130
sg20
I-130
sg21
I-130
sg22
I-130
sg23
I-130
sg24
I-130
sg25
I-130
sg26
I-130
sg27
I-130
sg28
I-130
sg29
I-130
sg30
I-130
sg31
I-130
sg32
I-130
sg33
I-130
sg34
I-130
sg35
I-130
sg36
I-130
sg37
I-130
sg38
I-130
sg39
I-130
sg40
I-130
sg41
I-130
sg42
I-130
sg43
I-130
sg44
I-130
sg45
I-130
sg46
I-130
sg47
I-130
sg48
I-130
sg49
I-130
sg50
I-130
sg51
I-130
sg52
I-130
sg53
I-130
sg54
I-130
sg58
I-130
ssI219
(dp378
g2
I16
sg58
I-130
sg3
I17
sg4
I20
sg5
I21
sg6
I22
sg7
I23
sg8
I24
sg9
I25
sg10
I26
sg11
I27
sg12
I28
sg13
I29
sg14
I30
sg15
I31
sg16
I32
sg17
I33
sg18
I34
sg19
I35
sg20
I36
sg21
I37
sg22
I38
sg23
I39
sg24
I40
sg25
I41
sg26
I42
sg27
I43
sg28
I44
sg29
I45
sg30
I46
sg31
I47
sg32
I48
sg33
I49
sg34
I50
sg35
I52
sg36
I53
sg37
I54
sg38
I55
sg39
I56
sg40
I57
sg41
I58
sg42
I18
sg43
I59
sg44
I60
sg45
I51
sg46
I69
sg47
I70
sg48
I71
sg49
I72
sg50
I73
sg51
I74
sg52
I75
sg53
I76
ssI220
(dp379
g42
I18
sg43
I59
sg44
I60
sg45
I51
sg46
I69
sg47
I70
sg48
I71
sg49
I72
sg50
I73
sg51
I74
sg52
I75
sg53
I76
sg162
I135
ssI221
(dp380
g2
I-69
sg3
I-69
sg4
I-69
sg5
I-69
sg6
I-69
sg7
I-69
sg8
I-69
sg9
I-69
sg10
I-69
sg11
I-69
sg12
I-69
sg13
I-69
sg14
I-69
sg15
I-69
sg16
I-69
sg17
I-69
sg18
I-69
sg19
I-69
sg20
I-69
sg21
I-69
sg22
I-69
sg23
I-69
sg24
I-69
sg25
I-69
sg26
I-69
sg27
I-69
sg28
I-69
sg29
I-69
sg30
I-69
sg31
I-69
sg32
I-69
sg33
I-69
sg34
I-69
sg35
I-69
sg36
I-69
sg37
I-69
sg38
I-69
sg39
I-69
sg40
I-69
sg41
I-69
sg42
I-69
sg43
I-69
sg44
I-69
sg45
I-69
sg46
I-69
sg47
I-69
sg48
I-69
sg49
I-69
sg50
I-69
sg51
I-69
sg52
I-69
sg53
I-69
sg54
I-69
sg58
I-69
ssI222
(dp381
g77
I-124
sg78
I-124
sg79
I-124
sg80
I-124
sg81
I-124
sg82
I-124
sg83
I-124
sg84
I-124
sg85
I-124
sg86
I-124
sg87
I-124
sg88
I-124
sg89
I-124
sg90
I-124
sg91
I-124
sg92
I-124
sg2
I-124
sg3
I-124
sg4
I-124
sg5
I-124
sg6
I-124
sg7
I-124
sg8
I-124
sg9
I-124
sg10
I-124
sg11
I-124
sg12
I-124
sg13
I-124
sg14
I-124
sg15
I-124
sg16
I-124
sg17
I-124
sg18
I-124
sg19
I-124
sg20
I-124
sg21
I-124
sg22
I-124
sg23
I-124
sg24
I-124
sg25
I-124
sg26
I-124
sg27
I-124
sg28
I-124
sg29
I-124
sg30
I-124
sg31
I-124
sg32
I-124
sg33
I-124
sg34
I-124
sg35
I-124
sg36
I-124
sg37
I-124
sg38
I-124
sg39
I-124
sg40
I-124
sg41
I-124
sg42
I-124
sg44
I-124
sg45
I-124
sg46
I-124
sg47
I-124
sg48
I-124
sg49
I-124
sg50
I-124
sg51
I-124
sg52
I-124
sg54
I-124
sg93
I-124
sg58
I-124
sg94
I-124
sg95
I-124
sg96
I-124
sg97
I-124
ssI223
(dp382
g190
I-125
sg188
I-125
sg189
I-125
ssI224
(dp383
g97
I276
sg77
I87
sg78
I88
sg79
I89
sg80
I90
sg81
I91
sg82
I92
sg83
I93
sg84
I94
sg85
I95
sg86
I96
sg87
I97
sg88
I98
sg89
I99
sg90
I100
sg91
I101
sg92
I102
ssI225
(dp384
g77
I-104
sg78
I-104
sg79
I-104
sg80
I-104
sg81
I-104
sg82
I-104
sg83
I-104
sg84
I-104
sg85
I-104
sg86
I-104
sg87
I-104
sg88
I-104
sg89
I-104
sg90
I-104
sg91
I-104
sg92
I-104
sg2
I-104
sg3
I-104
sg4
I-104
sg5
I-104
sg6
I-104
sg7
I-104
sg8
I-104
sg9
I-104
sg10
I-104
sg11
I-104
sg12
I-104
sg13
I-104
sg14
I-104
sg15
I-104
sg16
I-104
sg17
I-104
sg18
I-104
sg19
I-104
sg20
I-104
sg21
I-104
sg22
I-104
sg23
I-104
sg24
I-104
sg25
I-104
sg26
I-104
sg27
I-104
sg28
I-104
sg29
I-104
sg30
I-104
sg31
I-104
sg32
I-104
sg33
I-104
sg34
I-104
sg35
I-104
sg36
I-104
sg37
I-104
sg38
I-104
sg39
I-104
sg40
I-104
sg41
I-104
sg42
I-104
sg44
I-104
sg45
I-104
sg46
I-104
sg47
I-104
sg48
I-104
sg49
I-104
sg50
I-104
sg51
I-104
sg52
I-104
sg54
I-104
sg93
I-104
sg58
I-104
sg94
I-104
sg95
I-104
sg96
I-104
sg97
I-104
ssI226
(dp385
g42
I18
sg43
I59
sg44
I60
sg45
I51
sg46
I69
sg47
I70
sg48
I71
sg49
I72
sg50
I73
sg51
I74
sg52
I75
sg53
I76
sg162
I135
ssI227
(dp386
g196
I-109
sg72
I-109
ssI228
(dp387
g196
I-112
sg72
I-112
sg77
I87
sg78
I88
sg79
I89
sg80
I90
sg81
I91
sg82
I92
sg83
I93
sg84
I94
sg85
I95
sg86
I96
sg87
I97
sg88
I98
sg89
I99
sg90
I100
sg91
I101
sg92
I102
ssI229
(dp388
g2
I-18
sg3
I-18
sg4
I-18
sg5
I-18
sg6
I-18
sg7
I-18
sg8
I-18
sg9
I-18
sg10
I-18
sg11
I-18
sg12
I-18
sg13
I-18
sg14
I-18
sg15
I-18
sg16
I-18
sg17
I-18
sg18
I-18
sg19
I-18
sg20
I-18
sg21
I-18
sg22
I-18
sg23
I-18
sg24
I-18
sg25
I-18
sg26
I-18
sg27
I-18
sg28
I-18
sg29
I-18
sg30
I-18
sg31
I-18
sg32
I-18
sg33
I-18
sg34
I-18
sg35
I-18
sg36
I-18
sg37
I-18
sg38
I-18
sg39
I-18
sg40
I-18
sg41
I-18
sg42
I-18
sg43
I88
sg44
I-18
sg45
I-18
sg46
I-18
sg47
I-18
sg48
I-18
sg49
I-18
sg50
I-18
sg51
I-18
sg52
I-18
sg53
I102
sg54
I-18
sg58
I-18
sg77
I87
sg79
I89
sg80
I90
sg81
I91
sg82
I92
sg83
I93
sg84
I94
sg85
I95
sg86
I96
sg87
I97
sg88
I98
sg89
I99
sg90
I100
sg91
I101
ssI230
(dp389
g77
I-119
sg78
I-119
sg79
I-119
sg80
I-119
sg81
I-119
sg82
I-119
sg83
I-119
sg84
I-119
sg85
I-119
sg86
I-119
sg87
I-119
sg88
I-119
sg89
I-119
sg90
I-119
sg91
I-119
sg92
I-119
sg2
I-119
sg3
I-119
sg4
I-119
sg5
I-119
sg6
I-119
sg7
I-119
sg8
I-119
sg9
I-119
sg10
I-119
sg11
I-119
sg12
I-119
sg13
I-119
sg14
I-119
sg15
I-119
sg16
I-119
sg17
I-119
sg18
I-119
sg19
I-119
sg20
I-119
sg21
I-119
sg22
I-119
sg23
I-119
sg24
I-119
sg25
I-119
sg26
I-119
sg27
I-119
sg28
I-119
sg29
I-119
sg30
I-119
sg31
I-119
sg32
I-119
sg33
I-119
sg34
I-119
sg35
I-119
sg36
I-119
sg37
I-119
sg38
I-119
sg39
I-119
sg40
I-119
sg41
I-119
sg42
I-119
sg44
I-119
sg45
I-119
sg46
I-119
sg47
I-119
sg48
I-119
sg49
I-119
sg50
I-119
sg51
I-119
sg52
I-119
sg54
I-119
sg93
I-119
sg58
I-119
sg94
I-119
sg95
I-119
sg96
I-119
sg97
I-119
ssI231
(dp390
g42
I18
sg43
I59
sg44
I60
sg45
I51
sg46
I69
sg47
I70
sg48
I71
sg49
I72
sg50
I73
sg51
I74
sg52
I75
sg53
I76
sg162
I135
ssI232
(dp391
VRPAREN
p392
I-130
sg42
I18
sg43
I59
sg44
I60
sg45
I51
sg46
I69
sg47
I70
sg48
I71
sg49
I72
sg50
I73
sg51
I74
sg52
I75
sg53
I76
sg162
I135
ssI233
(dp393
g77
I-102
sg78
I-102
sg79
I-102
sg80
I-102
sg81
I-102
sg82
I-102
sg83
I-102
sg84
I-102
sg85
I-102
sg86
I-102
sg87
I-102
sg88
I-102
sg89
I-102
sg90
I-102
sg91
I-102
sg92
I-102
sg2
I-102
sg3
I-102
sg4
I-102
sg5
I-102
sg6
I-102
sg7
I-102
sg8
I-102
sg9
I-102
sg10
I-102
sg11
I-102
sg12
I-102
sg13
I-102
sg14
I-102
sg15
I-102
sg16
I-102
sg17
I-102
sg18
I-102
sg19
I-102
sg20
I-102
sg21
I-102
sg22
I-102
sg23
I-102
sg24
I-102
sg25
I-102
sg26
I-102
sg27
I-102
sg28
I-102
sg29
I-102
sg30
I-102
sg31
I-102
sg32
I-102
sg33
I-102
sg34
I-102
sg35
I-102
sg36
I-102
sg37
I-102
sg38
I-102
sg39
I-102
sg40
I-102
sg41
I-102
sg42
I-102
sg44
I-102
sg45
I-102
sg46
I-102
sg47
I-102
sg48
I-102
sg49
I-102
sg50
I-102
sg51
I-102
sg52
I-102
sg54
I-102
sg93
I-102
sg58
I-102
sg94
I-102
sg95
I-102
sg96
I-102
sg97
I-102
ssI234
(dp394
g42
I18
sg43
I59
sg44
I60
sg45
I51
sg46
I69
sg47
I70
sg48
I71
sg49
I72
sg50
I73
sg51
I74
sg52
I75
sg53
I76
sg162
I135
ssI235
(dp395
g2
I-19
sg3
I-19
sg4
I-19
sg5
I-19
sg6
I-19
sg7
I-19
sg8
I-19
sg9
I-19
sg10
I-19
sg11
I-19
sg12
I-19
sg13
I-19
sg14
I-19
sg15
I-19
sg16
I-19
sg17
I-19
sg18
I-19
sg19
I-19
sg20
I-19
sg21
I-19
sg22
I-19
sg23
I-19
sg24
I-19
sg25
I-19
sg26
I-19
sg27
I-19
sg28
I-19
sg29
I-19
sg30
I-19
sg31
I-19
sg32
I-19
sg33
I-19
sg34
I-19
sg35
I-19
sg36
I-19
sg37
I-19
sg38
I-19
sg39
I-19
sg40
I-19
sg41
I-19
sg42
I-19
sg43
I88
sg44
I-19
sg45
I-19
sg46
I-19
sg47
I-19
sg48
I-19
sg49
I-19
sg50
I-19
sg51
I-19
sg52
I-19
sg53
I102
sg54
I-19
sg58
I-19
sg77
I87
sg79
I89
sg80
I90
sg81
I91
sg82
I92
sg83
I93
sg84
I94
sg85
I95
sg86
I96
sg87
I97
sg88
I98
sg89
I99
sg90
I100
sg91
I101
ssI236
(dp396
g2
I-20
sg3
I-20
sg4
I-20
sg5
I-20
sg6
I-20
sg7
I-20
sg8
I-20
sg9
I-20
sg10
I-20
sg11
I-20
sg12
I-20
sg13
I-20
sg14
I-20
sg15
I-20
sg16
I-20
sg17
I-20
sg18
I-20
sg19
I-20
sg20
I-20
sg21
I-20
sg22
I-20
sg23
I-20
sg24
I-20
sg25
I-20
sg26
I-20
sg27
I-20
sg28
I-20
sg29
I-20
sg30
I-20
sg31
I-20
sg32
I-20
sg33
I-20
sg34
I-20
sg35
I-20
sg36
I-20
sg37
I-20
sg38
I-20
sg39
I-20
sg40
I-20
sg41
I-20
sg42
I-20
sg43
I88
sg44
I-20
sg45
I-20
sg46
I-20
sg47
I-20
sg48
I-20
sg49
I-20
sg50
I-20
sg51
I-20
sg52
I-20
sg53
I102
sg54
I-20
sg58
I-20
sg77
I87
sg79
I89
sg80
I90
sg81
I91
sg82
I92
sg83
I93
sg84
I94
sg85
I95
sg86
I96
sg87
I97
sg88
I98
sg89
I99
sg90
I100
sg91
I101
ssI237
(dp397
g2
I-21
sg3
I-21
sg4
I-21
sg5
I-21
sg6
I-21
sg7
I-21
sg8
I-21
sg9
I-21
sg10
I-21
sg11
I-21
sg12
I-21
sg13
I-21
sg14
I-21
sg15
I-21
sg16
I-21
sg17
I-21
sg18
I-21
sg19
I-21
sg20
I-21
sg21
I-21
sg22
I-21
sg23
I-21
sg24
I-21
sg25
I-21
sg26
I-21
sg27
I-21
sg28
I-21
sg29
I-21
sg30
I-21
sg31
I-21
sg32
I-21
sg33
I-21
sg34
I-21
sg35
I-21
sg36
I-21
sg37
I-21
sg38
I-21
sg39
I-21
sg40
I-21
sg41
I-21
sg42
I-21
sg43
I88
sg44
I-21
sg45
I-21
sg46
I-21
sg47
I-21
sg48
I-21
sg49
I-21
sg50
I-21
sg51
I-21
sg52
I-21
sg53
I102
sg54
I-21
sg58
I-21
sg77
I87
sg79
I89
sg80
I90
sg81
I91
sg82
I92
sg83
I93
sg84
I94
sg85
I95
sg86
I96
sg87
I97
sg88
I98
sg89
I99
sg90
I100
sg91
I101
ssI238
(dp398
g2
I-22
sg3
I-22
sg4
I-22
sg5
I-22
sg6
I-22
sg7
I-22
sg8
I-22
sg9
I-22
sg10
I-22
sg11
I-22
sg12
I-22
sg13
I-22
sg14
I-22
sg15
I-22
sg16
I-22
sg17
I-22
sg18
I-22
sg19
I-22
sg20
I-22
sg21
I-22
sg22
I-22
sg23
I-22
sg24
I-22
sg25
I-22
sg26
I-22
sg27
I-22
sg28
I-22
sg29
I-22
sg30
I-22
sg31
I-22
sg32
I-22
sg33
I-22
sg34
I-22
sg35
I-22
sg36
I-22
sg37
I-22
sg38
I-22
sg39
I-22
sg40
I-22
sg41
I-22
sg42
I-22
sg43
I88
sg44
I-22
sg45
I-22
sg46
I-22
sg47
I-22
sg48
I-22
sg49
I-22
sg50
I-22
sg51
I-22
sg52
I-22
sg53
I102
sg54
I-22
sg58
I-22
sg77
I87
sg79
I89
sg80
I90
sg81
I91
sg82
I92
sg83
I93
sg84
I94
sg85
I95
sg86
I96
sg87
I97
sg88
I98
sg89
I99
sg90
I100
sg91
I101
ssI239
(dp399
g2
I-23
sg3
I-23
sg4
I-23
sg5
I-23
sg6
I-23
sg7
I-23
sg8
I-23
sg9
I-23
sg10
I-23
sg11
I-23
sg12
I-23
sg13
I-23
sg14
I-23
sg15
I-23
sg16
I-23
sg17
I-23
sg18
I-23
sg19
I-23
sg20
I-23
sg21
I-23
sg22
I-23
sg23
I-23
sg24
I-23
sg25
I-23
sg26
I-23
sg27
I-23
sg28
I-23
sg29
I-23
sg30
I-23
sg31
I-23
sg32
I-23
sg33
I-23
sg34
I-23
sg35
I-23
sg36
I-23
sg37
I-23
sg38
I-23
sg39
I-23
sg40
I-23
sg41
I-23
sg42
I-23
sg43
I88
sg44
I-23
sg45
I-23
sg46
I-23
sg47
I-23
sg48
I-23
sg49
I-23
sg50
I-23
sg51
I-23
sg52
I-23
sg53
I102
sg54
I-23
sg58
I-23
sg77
I87
sg79
I89
sg80
I90
sg81
I91
sg82
I92
sg83
I93
sg84
I94
sg85
I95
sg86
I96
sg87
I97
sg88
I98
sg89
I99
sg90
I100
sg91
I101
ssI240
(dp400
g2
I-24
sg3
I-24
sg4
I-24
sg5
I-24
sg6
I-24
sg7
I-24
sg8
I-24
sg9
I-24
sg10
I-24
sg11
I-24
sg12
I-24
sg13
I-24
sg14
I-24
sg15
I-24
sg16
I-24
sg17
I-24
sg18
I-24
sg19
I-24
sg20
I-24
sg21
I-24
sg22
I-24
sg23
I-24
sg24
I-24
sg25
I-24
sg26
I-24
sg27
I-24
sg28
I-24
sg29
I-24
sg30
I-24
sg31
I-24
sg32
I-24
sg33
I-24
sg34
I-24
sg35
I-24
sg36
I-24
sg37
I-24
sg38
I-24
sg39
I-24
sg40
I-24
sg41
I-24
sg42
I-24
sg43
I88
sg44
I-24
sg45
I-24
sg46
I-24
sg47
I-24
sg48
I-24
sg49
I-24
sg50
I-24
sg51
I-24
sg52
I-24
sg53
I102
sg54
I-24
sg58
I-24
sg77
I87
sg79
I89
sg80
I90
sg81
I91
sg82
I92
sg83
I93
sg84
I94
sg85
I95
sg86
I96
sg87
I97
sg88
I98
sg89
I99
sg90
I100
sg91
I101
ssI241
(dp401
g2
I-25
sg3
I-25
sg4
I-25
sg5
I-25
sg6
I-25
sg7
I-25
sg8
I-25
sg9
I-25
sg10
I-25
sg11
I-25
sg12
I-25
sg13
I-25
sg14
I-25
sg15
I-25
sg16
I-25
sg17
I-25
sg18
I-25
sg19
I-25
sg20
I-25
sg21
I-25
sg22
I-25
sg23
I-25
sg24
I-25
sg25
I-25
sg26
I-25
sg27
I-25
sg28
I-25
sg29
I-25
sg30
I-25
sg31
I-25
sg32
I-25
sg33
I-25
sg34
I-25
sg35
I-25
sg36
I-25
sg37
I-25
sg38
I-25
sg39
I-25
sg40
I-25
sg41
I-25
sg42
I-25
sg43
I88
sg44
I-25
sg45
I-25
sg46
I-25
sg47
I-25
sg48
I-25
sg49
I-25
sg50
I-25
sg51
I-25
sg52
I-25
sg53
I102
sg54
I-25
sg58
I-25
sg77
I87
sg79
I89
sg80
I90
sg81
I91
sg82
I92
sg83
I93
sg84
I94
sg85
I95
sg86
I96
sg87
I97
sg88
I98
sg89
I99
sg90
I100
sg91
I101
ssI242
(dp402
g2
I-26
sg3
I-26
sg4
I-26
sg5
I-26
sg6
I-26
sg7
I-26
sg8
I-26
sg9
I-26
sg10
I-26
sg11
I-26
sg12
I-26
sg13
I-26
sg14
I-26
sg15
I-26
sg16
I-26
sg17
I-26
sg18
I-26
sg19
I-26
sg20
I-26
sg21
I-26
sg22
I-26
sg23
I-26
sg24
I-26
sg25
I-26
sg26
I-26
sg27
I-26
sg28
I-26
sg29
I-26
sg30
I-26
sg31
I-26
sg32
I-26
sg33
I-26
sg34
I-26
sg35
I-26
sg36
I-26
sg37
I-26
sg38
I-26
sg39
I-26
sg40
I-26
sg41
I-26
sg42
I-26
sg43
I88
sg44
I-26
sg45
I-26
sg46
I-26
sg47
I-26
sg48
I-26
sg49
I-26
sg50
I-26
sg51
I-26
sg52
I-26
sg53
I102
sg54
I-26
sg58
I-26
sg77
I87
sg79
I89
sg80
I90
sg81
I91
sg82
I92
sg83
I93
sg84
I94
sg85
I95
sg86
I96
sg87
I97
sg88
I98
sg89
I99
sg90
I100
sg91
I101
ssI243
(dp403
g2
I-27
sg3
I-27
sg4
I-27
sg5
I-27
sg6
I-27
sg7
I-27
sg8
I-27
sg9
I-27
sg10
I-27
sg11
I-27
sg12
I-27
sg13
I-27
sg14
I-27
sg15
I-27
sg16
I-27
sg17
I-27
sg18
I-27
sg19
I-27
sg20
I-27
sg21
I-27
sg22
I-27
sg23
I-27
sg24
I-27
sg25
I-27
sg26
I-27
sg27
I-27
sg28
I-27
sg29
I-27
sg30
I-27
sg31
I-27
sg32
I-27
sg33
I-27
sg34
I-27
sg35
I-27
sg36
I-27
sg37
I-27
sg38
I-27
sg39
I-27
sg40
I-27
sg41
I-27
sg42
I-27
sg43
I88
sg44
I-27
sg45
I-27
sg46
I-27
sg47
I-27
sg48
I-27
sg49
I-27
sg50
I-27
sg51
I-27
sg52
I-27
sg53
I102
sg54
I-27
sg58
I-27
sg77
I87
sg79
I89
sg80
I90
sg81
I91
sg82
I92
sg83
I93
sg84
I94
sg85
I95
sg86
I96
sg87
I97
sg88
I98
sg89
I99
sg90
I100
sg91
I101
ssI244
(dp404
g2
I-28
sg3
I-28
sg4
I-28
sg5
I-28
sg6
I-28
sg7
I-28
sg8
I-28
sg9
I-28
sg10
I-28
sg11
I-28
sg12
I-28
sg13
I-28
sg14
I-28
sg15
I-28
sg16
I-28
sg17
I-28
sg18
I-28
sg19
I-28
sg20
I-28
sg21
I-28
sg22
I-28
sg23
I-28
sg24
I-28
sg25
I-28
sg26
I-28
sg27
I-28
sg28
I-28
sg29
I-28
sg30
I-28
sg31
I-28
sg32
I-28
sg33
I-28
sg34
I-28
sg35
I-28
sg36
I-28
sg37
I-28
sg38
I-28
sg39
I-28
sg40
I-28
sg41
I-28
sg42
I-28
sg43
I88
sg44
I-28
sg45
I-28
sg46
I-28
sg47
I-28
sg48
I-28
sg49
I-28
sg50
I-28
sg51
I-28
sg52
I-28
sg53
I102
sg54
I-28
sg58
I-28
sg77
I87
sg79
I89
sg80
I90
sg81
I91
sg82
I92
sg83
I93
sg84
I94
sg85
I95
sg86
I96
sg87
I97
sg88
I98
sg89
I99
sg90
I100
sg91
I101
ssI245
(dp405
g2
I-29
sg3
I-29
sg4
I-29
sg5
I-29
sg6
I-29
sg7
I-29
sg8
I-29
sg9
I-29
sg10
I-29
sg11
I-29
sg12
I-29
sg13
I-29
sg14
I-29
sg15
I-29
sg16
I-29
sg17
I-29
sg18
I-29
sg19
I-29
sg20
I-29
sg21
I-29
sg22
I-29
sg23
I-29
sg24
I-29
sg25
I-29
sg26
I-29
sg27
I-29
sg28
I-29
sg29
I-29
sg30
I-29
sg31
I-29
sg32
I-29
sg33
I-29
sg34
I-29
sg35
I-29
sg36
I-29
sg37
I-29
sg38
I-29
sg39
I-29
sg40
I-29
sg41
I-29
sg42
I-29
sg43
I88
sg44
I-29
sg45
I-29
sg46
I-29
sg47
I-29
sg48
I-29
sg49
I-29
sg50
I-29
sg51
I-29
sg52
I-29
sg53
I102
sg54
I-29
sg58
I-29
sg77
I87
sg79
I89
sg80
I90
sg81
I91
sg82
I92
sg83
I93
sg84
I94
sg85
I95
sg86
I96
sg87
I97
sg88
I98
sg89
I99
sg90
I100
sg91
I101
ssI246
(dp406
g2
I-30
sg3
I-30
sg4
I-30
sg5
I-30
sg6
I-30
sg7
I-30
sg8
I-30
sg9
I-30
sg10
I-30
sg11
I-30
sg12
I-30
sg13
I-30
sg14
I-30
sg15
I-30
sg16
I-30
sg17
I-30
sg18
I-30
sg19
I-30
sg20
I-30
sg21
I-30
sg22
I-30
sg23
I-30
sg24
I-30
sg25
I-30
sg26
I-30
sg27
I-30
sg28
I-30
sg29
I-30
sg30
I-30
sg31
I-30
sg32
I-30
sg33
I-30
sg34
I-30
sg35
I-30
sg36
I-30
sg37
I-30
sg38
I-30
sg39
I-30
sg40
I-30
sg41
I-30
sg42
I-30
sg43
I88
sg44
I-30
sg45
I-30
sg46
I-30
sg47
I-30
sg48
I-30
sg49
I-30
sg50
I-30
sg51
I-30
sg52
I-30
sg53
I102
sg54
I-30
sg58
I-30
sg77
I87
sg79
I89
sg80
I90
sg81
I91
sg82
I92
sg83
I93
sg84
I94
sg85
I95
sg86
I96
sg87
I97
sg88
I98
sg89
I99
sg90
I100
sg91
I101
ssI247
(dp407
g2
I-31
sg3
I-31
sg4
I-31
sg5
I-31
sg6
I-31
sg7
I-31
sg8
I-31
sg9
I-31
sg10
I-31
sg11
I-31
sg12
I-31
sg13
I-31
sg14
I-31
sg15
I-31
sg16
I-31
sg17
I-31
sg18
I-31
sg19
I-31
sg20
I-31
sg21
I-31
sg22
I-31
sg23
I-31
sg24
I-31
sg25
I-31
sg26
I-31
sg27
I-31
sg28
I-31
sg29
I-31
sg30
I-31
sg31
I-31
sg32
I-31
sg33
I-31
sg34
I-31
sg35
I-31
sg36
I-31
sg37
I-31
sg38
I-31
sg39
I-31
sg40
I-31
sg41
I-31
sg42
I-31
sg43
I88
sg44
I-31
sg45
I-31
sg46
I-31
sg47
I-31
sg48
I-31
sg49
I-31
sg50
I-31
sg51
I-31
sg52
I-31
sg53
I102
sg54
I-31
sg58
I-31
sg77
I87
sg79
I89
sg80
I90
sg81
I91
sg82
I92
sg83
I93
sg84
I94
sg85
I95
sg86
I96
sg87
I97
sg88
I98
sg89
I99
sg90
I100
sg91
I101
ssI248
(dp408
g2
I-32
sg3
I-32
sg4
I-32
sg5
I-32
sg6
I-32
sg7
I-32
sg8
I-32
sg9
I-32
sg10
I-32
sg11
I-32
sg12
I-32
sg13
I-32
sg14
I-32
sg15
I-32
sg16
I-32
sg17
I-32
sg18
I-32
sg19
I-32
sg20
I-32
sg21
I-32
sg22
I-32
sg23
I-32
sg24
I-32
sg25
I-32
sg26
I-32
sg27
I-32
sg28
I-32
sg29
I-32
sg30
I-32
sg31
I-32
sg32
I-32
sg33
I-32
sg34
I-32
sg35
I-32
sg36
I-32
sg37
I-32
sg38
I-32
sg39
I-32
sg40
I-32
sg41
I-32
sg42
I-32
sg43
I88
sg44
I-32
sg45
I-32
sg46
I-32
sg47
I-32
sg48
I-32
sg49
I-32
sg50
I-32
sg51
I-32
sg52
I-32
sg53
I102
sg54
I-32
sg58
I-32
sg77
I87
sg79
I89
sg80
I90
sg81
I91
sg82
I92
sg83
I93
sg84
I94
sg85
I95
sg86
I96
sg87
I97
sg88
I98
sg89
I99
sg90
I100
sg91
I101
ssI249
(dp409
g2
I-33
sg3
I-33
sg4
I-33
sg5
I-33
sg6
I-33
sg7
I-33
sg8
I-33
sg9
I-33
sg10
I-33
sg11
I-33
sg12
I-33
sg13
I-33
sg14
I-33
sg15
I-33
sg16
I-33
sg17
I-33
sg18
I-33
sg19
I-33
sg20
I-33
sg21
I-33
sg22
I-33
sg23
I-33
sg24
I-33
sg25
I-33
sg26
I-33
sg27
I-33
sg28
I-33
sg29
I-33
sg30
I-33
sg31
I-33
sg32
I-33
sg33
I-33
sg34
I-33
sg35
I-33
sg36
I-33
sg37
I-33
sg38
I-33
sg39
I-33
sg40
I-33
sg41
I-33
sg42
I-33
sg43
I88
sg44
I-33
sg45
I-33
sg46
I-33
sg47
I-33
sg48
I-33
sg49
I-33
sg50
I-33
sg51
I-33
sg52
I-33
sg53
I102
sg54
I-33
sg58
I-33
sg77
I87
sg79
I89
sg80
I90
sg81
I91
sg82
I92
sg83
I93
sg84
I94
sg85
I95
sg86
I96
sg87
I97
sg88
I98
sg89
I99
sg90
I100
sg91
I101
ssI250
(dp410
g2
I-34
sg3
I-34
sg4
I-34
sg5
I-34
sg6
I-34
sg7
I-34
sg8
I-34
sg9
I-34
sg10
I-34
sg11
I-34
sg12
I-34
sg13
I-34
sg14
I-34
sg15
I-34
sg16
I-34
sg17
I-34
sg18
I-34
sg19
I-34
sg20
I-34
sg21
I-34
sg22
I-34
sg23
I-34
sg24
I-34
sg25
I-34
sg26
I-34
sg27
I-34
sg28
I-34
sg29
I-34
sg30
I-34
sg31
I-34
sg32
I-34
sg33
I-34
sg34
I-34
sg35
I-34
sg36
I-34
sg37
I-34
sg38
I-34
sg39
I-34
sg40
I-34
sg41
I-34
sg42
I-34
sg43
I88
sg44
I-34
sg45
I-34
sg46
I-34
sg47
I-34
sg48
I-34
sg49
I-34
sg50
I-34
sg51
I-34
sg52
I-34
sg53
I102
sg54
I-34
sg58
I-34
sg77
I87
sg79
I89
sg80
I90
sg81
I91
sg82
I92
sg83
I93
sg84
I94
sg85
I95
sg86
I96
sg87
I97
sg88
I98
sg89
I99
sg90
I100
sg91
I101
ssI251
(dp411
g2
I-35
sg3
I-35
sg4
I-35
sg5
I-35
sg6
I-35
sg7
I-35
sg8
I-35
sg9
I-35
sg10
I-35
sg11
I-35
sg12
I-35
sg13
I-35
sg14
I-35
sg15
I-35
sg16
I-35
sg17
I-35
sg18
I-35
sg19
I-35
sg20
I-35
sg21
I-35
sg22
I-35
sg23
I-35
sg24
I-35
sg25
I-35
sg26
I-35
sg27
I-35
sg28
I-35
sg29
I-35
sg30
I-35
sg31
I-35
sg32
I-35
sg33
I-35
sg34
I-35
sg35
I-35
sg36
I-35
sg37
I-35
sg38
I-35
sg39
I-35
sg40
I-35
sg41
I-35
sg42
I-35
sg43
I88
sg44
I-35
sg45
I-35
sg46
I-35
sg47
I-35
sg48
I-35
sg49
I-35
sg50
I-35
sg51
I-35
sg52
I-35
sg53
I102
sg54
I-35
sg58
I-35
sg77
I87
sg79
I89
sg80
I90
sg81
I91
sg82
I92
sg83
I93
sg84
I94
sg85
I95
sg86
I96
sg87
I97
sg88
I98
sg89
I99
sg90
I100
sg91
I101
ssI252
(dp412
g2
I-36
sg3
I-36
sg4
I-36
sg5
I-36
sg6
I-36
sg7
I-36
sg8
I-36
sg9
I-36
sg10
I-36
sg11
I-36
sg12
I-36
sg13
I-36
sg14
I-36
sg15
I-36
sg16
I-36
sg17
I-36
sg18
I-36
sg19
I-36
sg20
I-36
sg21
I-36
sg22
I-36
sg23
I-36
sg24
I-36
sg25
I-36
sg26
I-36
sg27
I-36
sg28
I-36
sg29
I-36
sg30
I-36
sg31
I-36
sg32
I-36
sg33
I-36
sg34
I-36
sg35
I-36
sg36
I-36
sg37
I-36
sg38
I-36
sg39
I-36
sg40
I-36
sg41
I-36
sg42
I-36
sg43
I88
sg44
I-36
sg45
I-36
sg46
I-36
sg47
I-36
sg48
I-36
sg49
I-36
sg50
I-36
sg51
I-36
sg52
I-36
sg53
I102
sg54
I-36
sg58
I-36
sg77
I87
sg79
I89
sg80
I90
sg81
I91
sg82
I92
sg83
I93
sg84
I94
sg85
I95
sg86
I96
sg87
I97
sg88
I98
sg89
I99
sg90
I100
sg91
I101
ssI253
(dp413
g2
I-37
sg3
I-37
sg4
I-37
sg5
I-37
sg6
I-37
sg7
I-37
sg8
I-37
sg9
I-37
sg10
I-37
sg11
I-37
sg12
I-37
sg13
I-37
sg14
I-37
sg15
I-37
sg16
I-37
sg17
I-37
sg18
I-37
sg19
I-37
sg20
I-37
sg21
I-37
sg22
I-37
sg23
I-37
sg24
I-37
sg25
I-37
sg26
I-37
sg27
I-37
sg28
I-37
sg29
I-37
sg30
I-37
sg31
I-37
sg32
I-37
sg33
I-37
sg34
I-37
sg35
I-37
sg36
I-37
sg37
I-37
sg38
I-37
sg39
I-37
sg40
I-37
sg41
I-37
sg42
I-37
sg43
I88
sg44
I-37
sg45
I-37
sg46
I-37
sg47
I-37
sg48
I-37
sg49
I-37
sg50
I-37
sg51
I-37
sg52
I-37
sg53
I102
sg54
I-37
sg58
I-37
sg77
I87
sg79
I89
sg80
I90
sg81
I91
sg82
I92
sg83
I93
sg84
I94
sg85
I95
sg86
I96
sg87
I97
sg88
I98
sg89
I99
sg90
I100
sg91
I101
ssI254
(dp414
g2
I-38
sg3
I-38
sg4
I-38
sg5
I-38
sg6
I-38
sg7
I-38
sg8
I-38
sg9
I-38
sg10
I-38
sg11
I-38
sg12
I-38
sg13
I-38
sg14
I-38
sg15
I-38
sg16
I-38
sg17
I-38
sg18
I-38
sg19
I-38
sg20
I-38
sg21
I-38
sg22
I-38
sg23
I-38
sg24
I-38
sg25
I-38
sg26
I-38
sg27
I-38
sg28
I-38
sg29
I-38
sg30
I-38
sg31
I-38
sg32
I-38
sg33
I-38
sg34
I-38
sg35
I-38
sg36
I-38
sg37
I-38
sg38
I-38
sg39
I-38
sg40
I-38
sg41
I-38
sg42
I-38
sg43
I88
sg44
I-38
sg45
I-38
sg46
I-38
sg47
I-38
sg48
I-38
sg49
I-38
sg50
I-38
sg51
I-38
sg52
I-38
sg53
I102
sg54
I-38
sg58
I-38
sg77
I87
sg79
I89
sg80
I90
sg81
I91
sg82
I92
sg83
I93
sg84
I94
sg85
I95
sg86
I96
sg87
I97
sg88
I98
sg89
I99
sg90
I100
sg91
I101
ssI255
(dp415
g2
I-39
sg3
I-39
sg4
I-39
sg5
I-39
sg6
I-39
sg7
I-39
sg8
I-39
sg9
I-39
sg10
I-39
sg11
I-39
sg12
I-39
sg13
I-39
sg14
I-39
sg15
I-39
sg16
I-39
sg17
I-39
sg18
I-39
sg19
I-39
sg20
I-39
sg21
I-39
sg22
I-39
sg23
I-39
sg24
I-39
sg25
I-39
sg26
I-39
sg27
I-39
sg28
I-39
sg29
I-39
sg30
I-39
sg31
I-39
sg32
I-39
sg33
I-39
sg34
I-39
sg35
I-39
sg36
I-39
sg37
I-39
sg38
I-39
sg39
I-39
sg40
I-39
sg41
I-39
sg42
I-39
sg43
I88
sg44
I-39
sg45
I-39
sg46
I-39
sg47
I-39
sg48
I-39
sg49
I-39
sg50
I-39
sg51
I-39
sg52
I-39
sg53
I102
sg54
I-39
sg58
I-39
sg77
I87
sg79
I89
sg80
I90
sg81
I91
sg82
I92
sg83
I93
sg84
I94
sg85
I95
sg86
I96
sg87
I97
sg88
I98
sg89
I99
sg90
I100
sg91
I101
ssI256
(dp416
g2
I-40
sg3
I-40
sg4
I-40
sg5
I-40
sg6
I-40
sg7
I-40
sg8
I-40
sg9
I-40
sg10
I-40
sg11
I-40
sg12
I-40
sg13
I-40
sg14
I-40
sg15
I-40
sg16
I-40
sg17
I-40
sg18
I-40
sg19
I-40
sg20
I-40
sg21
I-40
sg22
I-40
sg23
I-40
sg24
I-40
sg25
I-40
sg26
I-40
sg27
I-40
sg28
I-40
sg29
I-40
sg30
I-40
sg31
I-40
sg32
I-40
sg33
I-40
sg34
I-40
sg35
I-40
sg36
I-40
sg37
I-40
sg38
I-40
sg39
I-40
sg40
I-40
sg41
I-40
sg42
I-40
sg43
I88
sg44
I-40
sg45
I-40
sg46
I-40
sg47
I-40
sg48
I-40
sg49
I-40
sg50
I-40
sg51
I-40
sg52
I-40
sg53
I102
sg54
I-40
sg58
I-40
sg77
I87
sg79
I89
sg80
I90
sg81
I91
sg82
I92
sg83
I93
sg84
I94
sg85
I95
sg86
I96
sg87
I97
sg88
I98
sg89
I99
sg90
I100
sg91
I101
ssI257
(dp417
g2
I-41
sg3
I-41
sg4
I-41
sg5
I-41
sg6
I-41
sg7
I-41
sg8
I-41
sg9
I-41
sg10
I-41
sg11
I-41
sg12
I-41
sg13
I-41
sg14
I-41
sg15
I-41
sg16
I-41
sg17
I-41
sg18
I-41
sg19
I-41
sg20
I-41
sg21
I-41
sg22
I-41
sg23
I-41
sg24
I-41
sg25
I-41
sg26
I-41
sg27
I-41
sg28
I-41
sg29
I-41
sg30
I-41
sg31
I-41
sg32
I-41
sg33
I-41
sg34
I-41
sg35
I-41
sg36
I-41
sg37
I-41
sg38
I-41
sg39
I-41
sg40
I-41
sg41
I-41
sg42
I-41
sg43
I88
sg44
I-41
sg45
I-41
sg46
I-41
sg47
I-41
sg48
I-41
sg49
I-41
sg50
I-41
sg51
I-41
sg52
I-41
sg53
I102
sg54
I-41
sg58
I-41
sg77
I87
sg79
I89
sg80
I90
sg81
I91
sg82
I92
sg83
I93
sg84
I94
sg85
I95
sg86
I96
sg87
I97
sg88
I98
sg89
I99
sg90
I100
sg91
I101
ssI258
(dp418
g2
I-42
sg3
I-42
sg4
I-42
sg5
I-42
sg6
I-42
sg7
I-42
sg8
I-42
sg9
I-42
sg10
I-42
sg11
I-42
sg12
I-42
sg13
I-42
sg14
I-42
sg15
I-42
sg16
I-42
sg17
I-42
sg18
I-42
sg19
I-42
sg20
I-42
sg21
I-42
sg22
I-42
sg23
I-42
sg24
I-42
sg25
I-42
sg26
I-42
sg27
I-42
sg28
I-42
sg29
I-42
sg30
I-42
sg31
I-42
sg32
I-42
sg33
I-42
sg34
I-42
sg35
I-42
sg36
I-42
sg37
I-42
sg38
I-42
sg39
I-42
sg40
I-42
sg41
I-42
sg42
I-42
sg43
I88
sg44
I-42
sg45
I-42
sg46
I-42
sg47
I-42
sg48
I-42
sg49
I-42
sg50
I-42
sg51
I-42
sg52
I-42
sg53
I102
sg54
I-42
sg58
I-42
sg77
I87
sg79
I89
sg80
I90
sg81
I91
sg82
I92
sg83
I93
sg84
I94
sg85
I95
sg86
I96
sg87
I97
sg88
I98
sg89
I99
sg90
I100
sg91
I101
ssI259
(dp419
g2
I-43
sg3
I-43
sg4
I-43
sg5
I-43
sg6
I-43
sg7
I-43
sg8
I-43
sg9
I-43
sg10
I-43
sg11
I-43
sg12
I-43
sg13
I-43
sg14
I-43
sg15
I-43
sg16
I-43
sg17
I-43
sg18
I-43
sg19
I-43
sg20
I-43
sg21
I-43
sg22
I-43
sg23
I-43
sg24
I-43
sg25
I-43
sg26
I-43
sg27
I-43
sg28
I-43
sg29
I-43
sg30
I-43
sg31
I-43
sg32
I-43
sg33
I-43
sg34
I-43
sg35
I-43
sg36
I-43
sg37
I-43
sg38
I-43
sg39
I-43
sg40
I-43
sg41
I-43
sg42
I-43
sg43
I88
sg44
I-43
sg45
I-43
sg46
I-43
sg47
I-43
sg48
I-43
sg49
I-43
sg50
I-43
sg51
I-43
sg52
I-43
sg53
I102
sg54
I-43
sg58
I-43
sg77
I87
sg79
I89
sg80
I90
sg81
I91
sg82
I92
sg83
I93
sg84
I94
sg85
I95
sg86
I96
sg87
I97
sg88
I98
sg89
I99
sg90
I100
sg91
I101
ssI260
(dp420
g2
I-44
sg3
I-44
sg4
I-44
sg5
I-44
sg6
I-44
sg7
I-44
sg8
I-44
sg9
I-44
sg10
I-44
sg11
I-44
sg12
I-44
sg13
I-44
sg14
I-44
sg15
I-44
sg16
I-44
sg17
I-44
sg18
I-44
sg19
I-44
sg20
I-44
sg21
I-44
sg22
I-44
sg23
I-44
sg24
I-44
sg25
I-44
sg26
I-44
sg27
I-44
sg28
I-44
sg29
I-44
sg30
I-44
sg31
I-44
sg32
I-44
sg33
I-44
sg34
I-44
sg35
I-44
sg36
I-44
sg37
I-44
sg38
I-44
sg39
I-44
sg40
I-44
sg41
I-44
sg42
I-44
sg43
I88
sg44
I-44
sg45
I-44
sg46
I-44
sg47
I-44
sg48
I-44
sg49
I-44
sg50
I-44
sg51
I-44
sg52
I-44
sg53
I102
sg54
I-44
sg58
I-44
sg77
I87
sg79
I89
sg80
I90
sg81
I91
sg82
I92
sg83
I93
sg84
I94
sg85
I95
sg86
I96
sg87
I97
sg88
I98
sg89
I99
sg90
I100
sg91
I101
ssI261
(dp421
g2
I-45
sg3
I-45
sg4
I-45
sg5
I-45
sg6
I-45
sg7
I-45
sg8
I-45
sg9
I-45
sg10
I-45
sg11
I-45
sg12
I-45
sg13
I-45
sg14
I-45
sg15
I-45
sg16
I-45
sg17
I-45
sg18
I-45
sg19
I-45
sg20
I-45
sg21
I-45
sg22
I-45
sg23
I-45
sg24
I-45
sg25
I-45
sg26
I-45
sg27
I-45
sg28
I-45
sg29
I-45
sg30
I-45
sg31
I-45
sg32
I-45
sg33
I-45
sg34
I-45
sg35
I-45
sg36
I-45
sg37
I-45
sg38
I-45
sg39
I-45
sg40
I-45
sg41
I-45
sg42
I-45
sg43
I88
sg44
I-45
sg45
I-45
sg46
I-45
sg47
I-45
sg48
I-45
sg49
I-45
sg50
I-45
sg51
I-45
sg52
I-45
sg53
I102
sg54
I-45
sg58
I-45
sg77
I87
sg79
I89
sg80
I90
sg81
I91
sg82
I92
sg83
I93
sg84
I94
sg85
I95
sg86
I96
sg87
I97
sg88
I98
sg89
I99
sg90
I100
sg91
I101
ssI262
(dp422
g2
I-46
sg3
I-46
sg4
I-46
sg5
I-46
sg6
I-46
sg7
I-46
sg8
I-46
sg9
I-46
sg10
I-46
sg11
I-46
sg12
I-46
sg13
I-46
sg14
I-46
sg15
I-46
sg16
I-46
sg17
I-46
sg18
I-46
sg19
I-46
sg20
I-46
sg21
I-46
sg22
I-46
sg23
I-46
sg24
I-46
sg25
I-46
sg26
I-46
sg27
I-46
sg28
I-46
sg29
I-46
sg30
I-46
sg31
I-46
sg32
I-46
sg33
I-46
sg34
I-46
sg35
I-46
sg36
I-46
sg37
I-46
sg38
I-46
sg39
I-46
sg40
I-46
sg41
I-46
sg42
I-46
sg43
I88
sg44
I-46
sg45
I-46
sg46
I-46
sg47
I-46
sg48
I-46
sg49
I-46
sg50
I-46
sg51
I-46
sg52
I-46
sg53
I102
sg54
I-46
sg58
I-46
sg77
I87
sg79
I89
sg80
I90
sg81
I91
sg82
I92
sg83
I93
sg84
I94
sg85
I95
sg86
I96
sg87
I97
sg88
I98
sg89
I99
sg90
I100
sg91
I101
ssI263
(dp423
g2
I-47
sg3
I-47
sg4
I-47
sg5
I-47
sg6
I-47
sg7
I-47
sg8
I-47
sg9
I-47
sg10
I-47
sg11
I-47
sg12
I-47
sg13
I-47
sg14
I-47
sg15
I-47
sg16
I-47
sg17
I-47
sg18
I-47
sg19
I-47
sg20
I-47
sg21
I-47
sg22
I-47
sg23
I-47
sg24
I-47
sg25
I-47
sg26
I-47
sg27
I-47
sg28
I-47
sg29
I-47
sg30
I-47
sg31
I-47
sg32
I-47
sg33
I-47
sg34
I-47
sg35
I-47
sg36
I-47
sg37
I-47
sg38
I-47
sg39
I-47
sg40
I-47
sg41
I-47
sg42
I-47
sg43
I88
sg44
I-47
sg45
I-47
sg46
I-47
sg47
I-47
sg48
I-47
sg49
I-47
sg50
I-47
sg51
I-47
sg52
I-47
sg53
I102
sg54
I-47
sg58
I-47
sg77
I87
sg79
I89
sg80
I90
sg81
I91
sg82
I92
sg83
I93
sg84
I94
sg85
I95
sg86
I96
sg87
I97
sg88
I98
sg89
I99
sg90
I100
sg91
I101
ssI264
(dp424
g2
I-48
sg3
I-48
sg4
I-48
sg5
I-48
sg6
I-48
sg7
I-48
sg8
I-48
sg9
I-48
sg10
I-48
sg11
I-48
sg12
I-48
sg13
I-48
sg14
I-48
sg15
I-48
sg16
I-48
sg17
I-48
sg18
I-48
sg19
I-48
sg20
I-48
sg21
I-48
sg22
I-48
sg23
I-48
sg24
I-48
sg25
I-48
sg26
I-48
sg27
I-48
sg28
I-48
sg29
I-48
sg30
I-48
sg31
I-48
sg32
I-48
sg33
I-48
sg34
I-48
sg35
I-48
sg36
I-48
sg37
I-48
sg38
I-48
sg39
I-48
sg40
I-48
sg41
I-48
sg42
I-48
sg43
I88
sg44
I-48
sg45
I-48
sg46
I-48
sg47
I-48
sg48
I-48
sg49
I-48
sg50
I-48
sg51
I-48
sg52
I-48
sg53
I102
sg54
I-48
sg58
I-48
sg77
I87
sg79
I89
sg80
I90
sg81
I91
sg82
I92
sg83
I93
sg84
I94
sg85
I95
sg86
I96
sg87
I97
sg88
I98
sg89
I99
sg90
I100
sg91
I101
ssI265
(dp425
VCOMMA
p426
I-54
sg367
I-54
ssI266
(dp427
g367
I281
ssI267
(dp428
g367
I-50
sg426
I282
ssI268
(dp429
g367
I-51
ssI269
(dp430
g426
I-53
sg367
I-53
ssI270
(dp431
g2
I-61
sg3
I-61
sg4
I-61
sg5
I-61
sg6
I-61
sg7
I-61
sg8
I-61
sg9
I-61
sg10
I-61
sg11
I-61
sg12
I-61
sg13
I-61
sg14
I-61
sg15
I-61
sg16
I-61
sg17
I-61
sg18
I-61
sg19
I-61
sg20
I-61
sg21
I-61
sg22
I-61
sg23
I-61
sg24
I-61
sg25
I-61
sg26
I-61
sg27
I-61
sg28
I-61
sg29
I-61
sg30
I-61
sg31
I-61
sg32
I-61
sg33
I-61
sg34
I-61
sg35
I-61
sg36
I-61
sg37
I-61
sg38
I-61
sg39
I-61
sg40
I-61
sg41
I-61
sg42
I-61
sg43
I88
sg44
I-61
sg45
I-61
sg46
I-61
sg47
I-61
sg48
I-61
sg49
I-61
sg50
I-61
sg51
I-61
sg52
I-61
sg53
I102
sg54
I-61
sg58
I-61
sg77
I87
sg79
I89
sg80
I90
sg81
I91
sg82
I92
sg83
I93
sg84
I94
sg85
I95
sg86
I96
sg87
I97
sg88
I98
sg89
I99
sg90
I100
sg91
I101
ssI271
(dp432
g2
I-62
sg3
I-62
sg4
I-62
sg5
I-62
sg6
I-62
sg7
I-62
sg8
I-62
sg9
I-62
sg10
I-62
sg11
I-62
sg12
I-62
sg13
I-62
sg14
I-62
sg15
I-62
sg16
I-62
sg17
I-62
sg18
I-62
sg19
I-62
sg20
I-62
sg21
I-62
sg22
I-62
sg23
I-62
sg24
I-62
sg25
I-62
sg26
I-62
sg27
I-62
sg28
I-62
sg29
I-62
sg30
I-62
sg31
I-62
sg32
I-62
sg33
I-62
sg34
I-62
sg35
I-62
sg36
I-62
sg37
I-62
sg38
I-62
sg39
I-62
sg40
I-62
sg41
I-62
sg42
I-62
sg43
I88
sg44
I-62
sg45
I-62
sg46
I-62
sg47
I-62
sg48
I-62
sg49
I-62
sg50
I-62
sg51
I-62
sg52
I-62
sg53
I102
sg54
I-62
sg58
I-62
sg77
I87
sg79
I89
sg80
I90
sg81
I91
sg82
I92
sg83
I93
sg84
I94
sg85
I95
sg86
I96
sg87
I97
sg88
I98
sg89
I99
sg90
I100
sg91
I101
ssI272
(dp433
g2
I-63
sg3
I-63
sg4
I-63
sg5
I-63
sg6
I-63
sg7
I-63
sg8
I-63
sg9
I-63
sg10
I-63
sg11
I-63
sg12
I-63
sg13
I-63
sg14
I-63
sg15
I-63
sg16
I-63
sg17
I-63
sg18
I-63
sg19
I-63
sg20
I-63
sg21
I-63
sg22
I-63
sg23
I-63
sg24
I-63
sg25
I-63
sg26
I-63
sg27
I-63
sg28
I-63
sg29
I-63
sg30
I-63
sg31
I-63
sg32
I-63
sg33
I-63
sg34
I-63
sg35
I-63
sg36
I-63
sg37
I-63
sg38
I-63
sg39
I-63
sg40
I-63
sg41
I-63
sg42
I-63
sg43
I-63
sg44
I-63
sg45
I-63
sg46
I-63
sg47
I-63
sg48
I-63
sg49
I-63
sg50
I-63
sg51
I-63
sg52
I-63
sg53
I-63
sg54
I-63
sg58
I-63
ssI273
(dp434
g2
I219
sg38
I55
sg39
I56
ssI274
(dp435
g2
I-68
sg3
I-68
sg4
I-68
sg5
I-68
sg6
I-68
sg7
I-68
sg8
I-68
sg9
I-68
sg10
I-68
sg11
I-68
sg12
I-68
sg13
I-68
sg14
I-68
sg15
I-68
sg16
I-68
sg17
I-68
sg18
I-68
sg19
I-68
sg20
I-68
sg21
I-68
sg22
I-68
sg23
I-68
sg24
I-68
sg25
I-68
sg26
I-68
sg27
I-68
sg28
I-68
sg29
I-68
sg30
I-68
sg31
I-68
sg32
I-68
sg33
I-68
sg34
I-68
sg35
I-68
sg36
I-68
sg37
I-68
sg38
I-68
sg39
I-68
sg40
I-68
sg41
I-68
sg42
I-68
sg43
I-68
sg44
I-68
sg45
I-68
sg46
I-68
sg47
I-68
sg48
I-68
sg49
I-68
sg50
I-68
sg51
I-68
sg52
I-68
sg53
I-68
sg54
I-68
sg58
I-68
ssI275
(dp436
g293
I100
sg77
I-87
sg78
I-87
sg79
I-87
sg80
I-87
sg81
I-87
sg82
I-87
sg83
I-87
sg84
I-87
sg85
I-87
sg86
I-87
sg87
I-87
sg88
I-87
sg89
I-87
sg91
I-87
sg92
I102
sg2
I219
ssI276
(dp437
g190
I-129
sg188
I-129
sg189
I-129
ssI277
(dp438
g95
I-105
sg96
I-105
sg77
I87
sg78
I88
sg79
I89
sg80
I90
sg81
I91
sg82
I92
sg83
I93
sg84
I94
sg85
I95
sg86
I96
sg87
I97
sg88
I98
sg89
I99
sg90
I100
sg91
I101
sg92
I102
ssI278
(dp439
g315
I-122
sg204
I-122
sg77
I87
sg78
I88
sg79
I89
sg80
I90
sg81
I91
sg82
I92
sg83
I93
sg84
I94
sg85
I95
sg86
I96
sg87
I97
sg88
I98
sg89
I99
sg90
I100
sg91
I101
sg92
I102
ssI279
(dp440
g392
I287
ssI280
(dp441
VRBRACKET
p442
I288
sg77
I87
sg78
I88
sg79
I89
sg80
I90
sg81
I91
sg82
I92
sg83
I93
sg84
I94
sg85
I95
sg86
I96
sg87
I97
sg88
I98
sg89
I99
sg90
I100
sg91
I101
sg92
I102
ssI281
(dp443
g2
I219
ssI282
(dp444
g368
I265
ssI283
(dp445
g2
I-65
sg3
I-65
sg4
I-65
sg5
I-65
sg6
I-65
sg7
I-65
sg8
I-65
sg9
I-65
sg10
I-65
sg11
I-65
sg12
I-65
sg13
I-65
sg14
I-65
sg15
I-65
sg16
I-65
sg17
I-65
sg18
I-65
sg19
I-65
sg20
I-65
sg21
I-65
sg22
I-65
sg23
I-65
sg24
I-65
sg25
I-65
sg26
I-65
sg27
I-65
sg28
I-65
sg29
I-65
sg30
I-65
sg31
I-65
sg32
I-65
sg33
I-65
sg34
I-65
sg35
I-65
sg36
I-65
sg37
I-65
sg38
I-65
sg39
I-65
sg40
I-65
sg41
I-65
sg42
I-65
sg43
I-65
sg44
I-65
sg45
I-65
sg46
I-65
sg47
I-65
sg48
I-65
sg49
I-65
sg50
I-65
sg51
I-65
sg52
I-65
sg53
I-65
sg54
I-65
sg58
I-65
ssI284
(dp446
g2
I-66
sg3
I-66
sg4
I-66
sg5
I-66
sg6
I-66
sg7
I-66
sg8
I-66
sg9
I-66
sg10
I-66
sg11
I-66
sg12
I-66
sg13
I-66
sg14
I-66
sg15
I-66
sg16
I-66
sg17
I-66
sg18
I-66
sg19
I-66
sg20
I-66
sg21
I-66
sg22
I-66
sg23
I-66
sg24
I-66
sg25
I-66
sg26
I-66
sg27
I-66
sg28
I-66
sg29
I-66
sg30
I-66
sg31
I-66
sg32
I-66
sg33
I-66
sg34
I-66
sg35
I-66
sg36
I-66
sg37
I-66
sg38
I-66
sg39
I-66
sg40
I-66
sg41
I-66
sg42
I-66
sg43
I-66
sg44
I-66
sg45
I-66
sg46
I-66
sg47
I-66
sg48
I-66
sg49
I-66
sg50
I-66
sg51
I-66
sg52
I-66
sg53
I-66
sg54
I-66
sg58
I-66
ssI285
(dp447
g2
I-67
sg3
I-67
sg4
I-67
sg5
I-67
sg6
I-67
sg7
I-67
sg8
I-67
sg9
I-67
sg10
I-67
sg11
I-67
sg12
I-67
sg13
I-67
sg14
I-67
sg15
I-67
sg16
I-67
sg17
I-67
sg18
I-67
sg19
I-67
sg20
I-67
sg21
I-67
sg22
I-67
sg23
I-67
sg24
I-67
sg25
I-67
sg26
I-67
sg27
I-67
sg28
I-67
sg29
I-67
sg30
I-67
sg31
I-67
sg32
I-67
sg33
I-67
sg34
I-67
sg35
I-67
sg36
I-67
sg37
I-67
sg38
I-67
sg39
I-67
sg40
I-67
sg41
I-67
sg42
I-67
sg43
I-67
sg44
I-67
sg45
I-67
sg46
I-67
sg47
I-67
sg48
I-67
sg49
I-67
sg50
I-67
sg51
I-67
sg52
I-67
sg53
I-67
sg54
I-67
sg58
I-67
ssI286
(dp448
g307
I273
sg2
I-130
sg3
I-130
sg4
I-130
sg5
I-130
sg6
I-130
sg7
I-130
sg8
I-130
sg9
I-130
sg10
I-130
sg11
I-130
sg12
I-130
sg13
I-130
sg14
I-130
sg15
I-130
sg16
I-130
sg17
I-130
sg18
I-130
sg19
I-130
sg20
I-130
sg21
I-130
sg22
I-130
sg23
I-130
sg24
I-130
sg25
I-130
sg26
I-130
sg27
I-130
sg28
I-130
sg29
I-130
sg30
I-130
sg31
I-130
sg32
I-130
sg33
I-130
sg34
I-130
sg35
I-130
sg36
I-130
sg37
I-130
sg38
I-130
sg39
I-130
sg40
I-130
sg41
I-130
sg42
I-130
sg43
I-130
sg44
I-130
sg45
I-130
sg46
I-130
sg47
I-130
sg48
I-130
sg49
I-130
sg50
I-130
sg51
I-130
sg52
I-130
sg53
I-130
sg54
I-130
sg58
I-130
ssI287
(dp449
g77
I-101
sg78
I-101
sg79
I-101
sg80
I-101
sg81
I-101
sg82
I-101
sg83
I-101
sg84
I-101
sg85
I-101
sg86
I-101
sg87
I-101
sg88
I-101
sg89
I-101
sg90
I-101
sg91
I-101
sg92
I-101
sg2
I-101
sg3
I-101
sg4
I-101
sg5
I-101
sg6
I-101
sg7
I-101
sg8
I-101
sg9
I-101
sg10
I-101
sg11
I-101
sg12
I-101
sg13
I-101
sg14
I-101
sg15
I-101
sg16
I-101
sg17
I-101
sg18
I-101
sg19
I-101
sg20
I-101
sg21
I-101
sg22
I-101
sg23
I-101
sg24
I-101
sg25
I-101
sg26
I-101
sg27
I-101
sg28
I-101
sg29
I-101
sg30
I-101
sg31
I-101
sg32
I-101
sg33
I-101
sg34
I-101
sg35
I-101
sg36
I-101
sg37
I-101
sg38
I-101
sg39
I-101
sg40
I-101
sg41
I-101
sg42
I-101
sg44
I-101
sg45
I-101
sg46
I-101
sg47
I-101
sg48
I-101
sg49
I-101
sg50
I-101
sg51
I-101
sg52
I-101
sg54
I-101
sg93
I-101
sg58
I-101
sg94
I-101
sg95
I-101
sg96
I-101
sg97
I-101
ssI288
(dp450
g77
I-103
sg78
I-103
sg79
I-103
sg80
I-103
sg81
I-103
sg82
I-103
sg83
I-103
sg84
I-103
sg85
I-103
sg86
I-103
sg87
I-103
sg88
I-103
sg89
I-103
sg90
I-103
sg91
I-103
sg92
I-103
sg2
I-103
sg3
I-103
sg4
I-103
sg5
I-103
sg6
I-103
sg7
I-103
sg8
I-103
sg9
I-103
sg10
I-103
sg11
I-103
sg12
I-103
sg13
I-103
sg14
I-103
sg15
I-103
sg16
I-103
sg17
I-103
sg18
I-103
sg19
I-103
sg20
I-103
sg21
I-103
sg22
I-103
sg23
I-103
sg24
I-103
sg25
I-103
sg26
I-103
sg27
I-103
sg28
I-103
sg29
I-103
sg30
I-103
sg31
I-103
sg32
I-103
sg33
I-103
sg34
I-103
sg35
I-103
sg36
I-103
sg37
I-103
sg38
I-103
sg39
I-103
sg40
I-103
sg41
I-103
sg42
I-103
sg44
I-103
sg45
I-103
sg46
I-103
sg47
I-103
sg48
I-103
sg49
I-103
sg50
I-103
sg51
I-103
sg52
I-103
sg54
I-103
sg93
I-103
sg58
I-103
sg94
I-103
sg95
I-103
sg96
I-103
sg97
I-103
ssI289
(dp451
g2
I-49
sg3
I-49
sg4
I-49
sg5
I-49
sg6
I-49
sg7
I-49
sg8
I-49
sg9
I-49
sg10
I-49
sg11
I-49
sg12
I-49
sg13
I-49
sg14
I-49
sg15
I-49
sg16
I-49
sg17
I-49
sg18
I-49
sg19
I-49
sg20
I-49
sg21
I-49
sg22
I-49
sg23
I-49
sg24
I-49
sg25
I-49
sg26
I-49
sg27
I-49
sg28
I-49
sg29
I-49
sg30
I-49
sg31
I-49
sg32
I-49
sg33
I-49
sg34
I-49
sg35
I-49
sg36
I-49
sg37
I-49
sg38
I-49
sg39
I-49
sg40
I-49
sg41
I-49
sg42
I-49
sg43
I-49
sg44
I-49
sg45
I-49
sg46
I-49
sg47
I-49
sg48
I-49
sg49
I-49
sg50
I-49
sg51
I-49
sg52
I-49
sg53
I-49
sg54
I-49
sg58
I-49
ssI290
(dp452
g426
I-52
sg367
I-52
ssI291
(dp453
g2
I-64
sg3
I-64
sg4
I-64
sg5
I-64
sg6
I-64
sg7
I-64
sg8
I-64
sg9
I-64
sg10
I-64
sg11
I-64
sg12
I-64
sg13
I-64
sg14
I-64
sg15
I-64
sg16
I-64
sg17
I-64
sg18
I-64
sg19
I-64
sg20
I-64
sg21
I-64
sg22
I-64
sg23
I-64
sg24
I-64
sg25
I-64
sg26
I-64
sg27
I-64
sg28
I-64
sg29
I-64
sg30
I-64
sg31
I-64
sg32
I-64
sg33
I-64
sg34
I-64
sg35
I-64
sg36
I-64
sg37
I-64
sg38
I-64
sg39
I-64
sg40
I-64
sg41
I-64
sg42
I-64
sg43
I-64
sg44
I-64
sg45
I-64
sg46
I-64
sg47
I-64
sg48
I-64
sg49
I-64
sg50
I-64
sg51
I-64
sg52
I-64
sg53
I-64
sg54
I-64
sg58
I-64
ss.(dp0
I0
(dp1
Vprogram
p2
I1
sVstatements
p3
I2
sVstatement
p4
I3
sVblock_stmt
p5
I4
sVempty
p6
I5
sVvariable_decl
p7
I6
sVfunction_decl
p8
I7
sVshow_stmt
p9
I8
sVprint_stmt
p10
I9
sVread_stmt
p11
I10
sVif_stmt
p12
I11
sVwhen_stmt
p13
I12
sVwhile_stmt
p14
I13
sVreturn_stmt
p15
I14
sVexpression_stmt
p16
I15
sVexpression
p17
I19
sVliteral
p18
I61
sVfunction_call
p19
I62
sVinterpolated_string
p20
I63
sVlist_expression
p21
I64
sVmap_expression
p22
I65
sVmember_expression
p23
I66
sVindex_expression
p24
I67
sVslice_expression
p25
I68
ssI1
(dp26
sI2
(dp27
g4
I77
sg5
I78
sg7
I6
sg8
I7
sg9
I8
sg10
I9
sg11
I10
sg12
I11
sg13
I12
sg14
I13
sg15
I14
sg16
I15
sg17
I19
sg18
I61
sg19
I62
sg20
I63
sg21
I64
sg22
I65
sg23
I66
sg24
I67
sg25
I68
ssI3
(dp28
sI4
(dp29
sI5
(dp30
sI6
(dp31
sI7
(dp32
sI8
(dp33
sI9
(dp34
sI10
(dp35
sI11
(dp36
sI12
(dp37
sI13
(dp38
sI14
(dp39
sI15
(dp40
sI16
(dp41
Vstatements
p42
I79
sVmap_items
p43
I80
sg4
I3
sg5
I4
sg6
I81
sVmap_item
p44
I82
sg7
I6
sg8
I7
sg9
I8
sg10
I9
sg11
I10
sg12
I11
sg13
I12
sg14
I13
sg15
I14
sg16
I15
sVexpression
p45
I83
sg18
I61
sg19
I62
sg20
I63
sg21
I64
sg22
I65
sg23
I66
sg24
I67
sg25
I68
ssI17
(dp46
sI18
(dp47
sI19
(dp48
sI20
(dp49
sI21
(dp50
sI22
(dp51
sI23
(dp52
sI24
(dp53
sI25
(dp54
sI26
(dp55
sI27
(dp56
sI28
(dp57
sI29
(dp58
sI30
(dp59
sI31
(dp60
sI32
(dp61
sI33
(dp62
sI34
(dp63
sI35
(dp64
sI36
(dp65
sI37
(dp66
sI38
(dp67
sI39
(dp68
sI40
(dp69
sI41
(dp70
sI42
(dp71
sI43
(dp72
sI44
(dp73
sI45
(dp74
sI46
(dp75
sI47
(dp76
sI48
(dp77
sI49
(dp78
sI50
(dp79
sI51
(dp80
Vexpression
p81
I134
sg18
I61
sg19
I62
sg20
I63
sg21
I64
sg22
I65
sg23
I66
sg24
I67
sg25
I68
ssI52
(dp82
Vexpression
p83
I136
sg18
I61
sg19
I62
sg20
I63
sg21
I64
sg22
I65
sg23
I66
sg24
I67
sg25
I68
ssI53
(dp84
Vexpression
p85
I137
sg18
I61
sg19
I62
sg20
I63
sg21
I64
sg22
I65
sg23
I66
sg24
I67
sg25
I68
ssI54
(dp86
sI55
(dp87
Vexpression
p88
I139
sg18
I61
sg19
I62
sg20
I63
sg21
I64
sg22
I65
sg23
I66
sg24
I67
sg25
I68
ssI56
(dp89
Vexpression
p90
I140
sg18
I61
sg19
I62
sg20
I63
sg21
I64
sg22
I65
sg23
I66
sg24
I67
sg25
I68
ssI57
(dp91
Vexpression
p92
I141
sg18
I61
sg19
I62
sg20
I63
sg21
I64
sg22
I65
sg23
I66
sg24
I67
sg25
I68
ssI58
(dp93
Vexpression
p94
I142
sg18
I61
sg19
I62
sg20
I63
sg21
I64
sg22
I65
sg23
I66
sg24
I67
sg25
I68
ssI59
(dp95
Vexpression
p96
I143
sg18
I61
sg19
I62
sg20
I63
sg21
I64
sg22
I65
sg23
I66
sg24
I67
sg25
I68
ssI60
(dp97
Vexpression
p98
I144
sg18
I61
sg19
I62
sg20
I63
sg21
I64
sg22
I65
sg23
I66
sg24
I67
sg25
I68
ssI61
(dp99
sI62
(dp100
sI63
(dp101
sI64
(dp102
sI65
(dp103
sI66
(dp104
sI67
(dp105
sI68
(dp106
sI69
(dp107
sI70
(dp108
sI71
(dp109
sI72
(dp110
sI73
(dp111
sI74
(dp112
sI75
(dp113
Vstring_contents
p114
I145
sVstring_part
p115
I146
sVempty
p116
I147
ssI76
(dp117
Vlist_items
p118
I150
sVexpression
p119
I151
sVempty
p120
I152
sg18
I61
sg19
I62
sg20
I63
sg21
I64
sg22
I65
sg23
I66
sg24
I67
sg25
I68
ssI77
(dp121
sI78
(dp122
sI79
(dp123
g4
I77
sg5
I78
sg7
I6
sg8
I7
sg9
I8
sg10
I9
sg11
I10
sg12
I11
sg13
I12
sg14
I13
sg15
I14
sg16
I15
sg17
I19
sg18
I61
sg19
I62
sg20
I63
sg21
I64
sg22
I65
sg23
I66
sg24
I67
sg25
I68
ssI80
(dp124
sI81
(dp125
sI82
(dp126
sI83
(dp127
sI84
(dp128
sI85
(dp129
Vexpression
p130
I158
sg18
I61
sg19
I62
sg20
I63
sg21
I64
sg22
I65
sg23
I66
sg24
I67
sg25
I68
ssI86
(dp131
Vargs_opt
p132
I159
sVarg_list
p133
I160
sVempty
p134
I161
sVexpression
p135
I162
sg18
I61
sg19
I62
sg20
I63
sg21
I64
sg22
I65
sg23
I66
sg24
I67
sg25
I68
ssI87
(dp136
Vexpression
p137
I163
sg18
I61
sg19
I62
sg20
I63
sg21
I64
sg22
I65
sg23
I66
sg24
I67
sg25
I68
ssI88
(dp138
Vexpression
p139
I164
sg18
I61
sg19
I62
sg20
I63
sg21
I64
sg22
I65
sg23
I66
sg24
I67
sg25
I68
ssI89
(dp140
Vexpression
p141
I165
sg18
I61
sg19
I62
sg20
I63
sg21
I64
sg22
I65
sg23
I66
sg24
I67
sg25
I68
ssI90
(dp142
Vexpression
p143
I166
sg18
I61
sg19
I62
sg20
I63
sg21
I64
sg22
I65
sg23
I66
sg24
I67
sg25
I68
ssI91
(dp144
Vexpression
p145
I167
sg18
I61
sg19
I62
sg20
I63
sg21
I64
sg22
I65
sg23
I66
sg24
I67
sg25
I68
ssI92
(dp146
Vexpression
p147
I168
sg18
I61
sg19
I62
sg20
I63
sg21
I64
sg22
I65
sg23
I66
sg24
I67
sg25
I68
ssI93
(dp148
Vexpression
p149
I169
sg18
I61
sg19
I62
sg20
I63
sg21
I64
sg22
I65
sg23
I66
sg24
I67
sg25
I68
ssI94
(dp150
Vexpression
p151
I170
sg18
I61
sg19
I62
sg20
I63
sg21
I64
sg22
I65
sg23
I66
sg24
I67
sg25
I68
ssI95
(dp152
Vexpression
p153
I171
sg18
I61
sg19
I62
sg20
I63
sg21
I64
sg22
I65
sg23
I66
sg24
I67
sg25
I68
ssI96
(dp154
Vexpression
p155
I172
sg18
I61
sg19
I62
sg20
I63
sg21
I64
sg22
I65
sg23
I66
sg24
I67
sg25
I68
ssI97
(dp156
Vexpression
p157
I173
sg18
I61
sg19
I62
sg20
I63
sg21
I64
sg22
I65
sg23
I66
sg24
I67
sg25
I68
ssI98
(dp158
Vexpression
p159
I174
sg18
I61
sg19
I62
sg20
I63
sg21
I64
sg22
I65
sg23
I66
sg24
I67
sg25
I68
ssI99
(dp160
Vexpression
p161
I175
sg18
I61
sg19
I62
sg20
I63
sg21
I64
sg22
I65
sg23
I66
sg24
I67
sg25
I68
ssI100
(dp162
Vexpression
p163
I176
sg18
I61
sg19
I62
sg20
I63
sg21
I64
sg22
I65
sg23
I66
sg24
I67
sg25
I68
ssI101
(dp164
sI102
(dp165
Vexpression
p166
I178
sg18
I61
sg19
I62
sg20
I63
sg21
I64
sg22
I65
sg23
I66
sg24
I67
sg25
I68
ssI103
(dp167
sI104
(dp168
sI105
(dp169
sI106
(dp170
sI107
(dp171
sI108
(dp172
sI109
(dp173
sI110
(dp174
sI111
(dp175
sI112
(dp176
sI113
(dp177
sI114
(dp178
sI115
(dp179
sI116
(dp180
sI117
(dp181
sI118
(dp182
sI119
(dp183
sI120
(dp184
sI121
(dp185
sI122
(dp186
sI123
(dp187
sI124
(dp188
sI125
(dp189
sI126
(dp190
sI127
(dp191
sI128
(dp192
sI129
(dp193
sI130
(dp194
sI131
(dp195
sI132
(dp196
sI133
(dp197
sI134
(dp198
sI135
(dp199
g43
I80
sg44
I82
sVempty
p200
I211
sg45
I212
sg18
I61
sg19
I62
sg20
I63
sg21
I64
sg22
I65
sg23
I66
sg24
I67
sg25
I68
ssI136
(dp201
Vopt_colon_expression
p202
I213
ssI137
(dp203
Vopt_colon_expression
p204
I215
ssI138
(dp205
Vopt_assign_expression
p206
I216
ssI139
(dp207
Vblock_stmt
p208
I218
ssI140
(dp209
sI141
(dp210
Vblock_stmt
p211
I221
ssI142
(dp212
sI143
(dp213
sI144
(dp214
sI145
(dp215
g115
I223
ssI146
(dp216
sI147
(dp217
sI148
(dp218
sI149
(dp219
Vexpression
p220
I224
sg18
I61
sg19
I62
sg20
I63
sg21
I64
sg22
I65
sg23
I66
sg24
I67
sg25
I68
ssI150
(dp221
sI151
(dp222
sI152
(dp223
sI153
(dp224
sI154
(dp225
sI155
(dp226
g44
I227
sg45
I212
sg18
I61
sg19
I62
sg20
I63
sg21
I64
sg22
I65
sg23
I66
sg24
I67
sg25
I68
ssI156
(dp227
g45
I228
sg18
I61
sg19
I62
sg20
I63
sg21
I64
sg22
I65
sg23
I66
sg24
I67
sg25
I68
ssI157
(dp228
g17
I229
sg18
I61
sg19
I62
sg20
I63
sg21
I64
sg22
I65
sg23
I66
sg24
I67
sg25
I68
ssI158
(dp229
sI159
(dp230
sI160
(dp231
sI161
(dp232
sI162
(dp233
sI163
(dp234
sI164
(dp235
sI165
(dp236
sI166
(dp237
sI167
(dp238
sI168
(dp239
sI169
(dp240
sI170
(dp241
sI171
(dp242
sI172
(dp243
sI173
(dp244
sI174
(dp245
sI175
(dp246
sI176
(dp247
sI177
(dp248
sI178
(dp249
sI179
(dp250
Vexpression
p251
I235
sg18
I61
sg19
I62
sg20
I63
sg21
I64
sg22
I65
sg23
I66
sg24
I67
sg25
I68
ssI180
(dp252
Vexpression
p253
I236
sg18
I61
sg19
I62
sg20
I63
sg21
I64
sg22
I65
sg23
I66
sg24
I67
sg25
I68
ssI181
(dp254
Vexpression
p255
I237
sg18
I61
sg19
I62
sg20
I63
sg21
I64
sg22
I65
sg23
I66
sg24
I67
sg25
I68
ssI182
(dp256
Vexpression
p257
I238
sg18
I61
sg19
I62
sg20
I63
sg21
I64
sg22
I65
sg23
I66
sg24
I67
sg25
I68
ssI183
(dp258
Vexpression
p259
I239
sg18
I61
sg19
I62
sg20
I63
sg21
I64
sg22
I65
sg23
I66
sg24
I67
sg25
I68
ssI184
(dp260
Vexpression
p261
I240
sg18
I61
sg19
I62
sg20
I63
sg21
I64
sg22
I65
sg23
I66
sg24
I67
sg25
I68
ssI185
(dp262
Vexpression
p263
I241
sg18
I61
sg19
I62
sg20
I63
sg21
I64
sg22
I65
sg23
I66
sg24
I67
sg25
I68
ssI186
(dp264
Vexpression
p265
I242
sg18
I61
sg19
I62
sg20
I63
sg21
I64
sg22
I65
sg23
I66
sg24
I67
sg25
I68
ssI187
(dp266
Vexpression
p267
I243
sg18
I61
sg19
I62
sg20
I63
sg21
I64
sg22
I65
sg23
I66
sg24
I67
sg25
I68
ssI188
(dp268
Vexpression
p269
I244
sg18
I61
sg19
I62
sg20
I63
sg21
I64
sg22
I65
sg23
I66
sg24
I67
sg25
I68
ssI189
(dp270
Vexpression
p271
I245
sg18
I61
sg19
I62
sg20
I63
sg21
I64
sg22
I65
sg23
I66
sg24
I67
sg25
I68
ssI190
(dp272
Vexpression
p273
I246
sg18
I61
sg19
I62
sg20
I63
sg21
I64
sg22
I65
sg23
I66
sg24
I67
sg25
I68
ssI191
(dp274
Vexpression
p275
I247
sg18
I61
sg19
I62
sg20
I63
sg21
I64
sg22
I65
sg23
I66
sg24
I67
sg25
I68
ssI192
(dp276
Vexpression
p277
I248
sg18
I61
sg19
I62
sg20
I63
sg21
I64
sg22
I65
sg23
I66
sg24
I67
sg25
I68
ssI193
(dp278
Vexpression
p279
I249
sg18
I61
sg19
I62
sg20
I63
sg21
I64
sg22
I65
sg23
I66
sg24
I67
sg25
I68
ssI194
(dp280
Vexpression
p281
I250
sg18
I61
sg19
I62
sg20
I63
sg21
I64
sg22
I65
sg23
I66
sg24
I67
sg25
I68
ssI195
(dp282
Vexpression
p283
I251
sg18
I61
sg19
I62
sg20
I63
sg21
I64
sg22
I65
sg23
I66
sg24
I67
sg25
I68
ssI196
(dp284
Vexpression
p285
I252
sg18
I61
sg19
I62
sg20
I63
sg21
I64
sg22
I65
sg23
I66
sg24
I67
sg25
I68
ssI197
(dp286
Vexpression
p287
I253
sg18
I61
sg19
I62
sg20
I63
sg21
I64
sg22
I65
sg23
I66
sg24
I67
sg25
I68
ssI198
(dp288
Vexpression
p289
I254
sg18
I61
sg19
I62
sg20
I63
sg21
I64
sg22
I65
sg23
I66
sg24
I67
sg25
I68
ssI199
(dp290
Vexpression
p291
I255
sg18
I61
sg19
I62
sg20
I63
sg21
I64
sg22
I65
sg23
I66
sg24
I67
sg25
I68
ssI200
(dp292
Vexpression
p293
I256
sg18
I61
sg19
I62
sg20
I63
sg21
I64
sg22
I65
sg23
I66
sg24
I67
sg25
I68
ssI201
(dp294
Vexpression
p295
I257
sg18
I61
sg19
I62
sg20
I63
sg21
I64
sg22
I65
sg23
I66
sg24
I67
sg25
I68
ssI202
(dp296
Vexpression
p297
I258
sg18
I61
sg19
I62
sg20
I63
sg21
I64
sg22
I65
sg23
I66
sg24
I67
sg25
I68
ssI203
(dp298
Vexpression
p299
I259
sg18
I61
sg19
I62
sg20
I63
sg21
I64
sg22
I65
sg23
I66
sg24
I67
sg25
I68
ssI204
(dp300
Vexpression
p301
I260
sg18
I61
sg19
I62
sg20
I63
sg21
I64
sg22
I65
sg23
I66
sg24
I67
sg25
I68
ssI205
(dp302
Vexpression
p303
I261
sg18
I61
sg19
I62
sg20
I63
sg21
I64
sg22
I65
sg23
I66
sg24
I67
sg25
I68
ssI206
(dp304
Vexpression
p305
I262
sg18
I61
sg19
I62
sg20
I63
sg21
I64
sg22
I65
sg23
I66
sg24
I67
sg25
I68
ssI207
(dp306
Vexpression
p307
I263
sg18
I61
sg19
I62
sg20
I63
sg21
I64
sg22
I65
sg23
I66
sg24
I67
sg25
I68
ssI208
(dp308
Vexpression
p309
I264
sg18
I61
sg19
I62
sg20
I63
sg21
I64
sg22
I65
sg23
I66
sg24
I67
sg25
I68
ssI209
(dp310
Vparams_opt
p311
I266
sVparam_list
p312
I267
sVempty
p313
I268
sVparam
p314
I269
ssI210
(dp315
sI211
(dp316
sI212
(dp317
sI213
(dp318
sI214
(dp319
Vexpression
p320
I270
sg18
I61
sg19
I62
sg20
I63
sg21
I64
sg22
I65
sg23
I66
sg24
I67
sg25
I68
ssI215
(dp321
sI216
(dp322
sI217
(dp323
Vexpression
p324
I271
sg18
I61
sg19
I62
sg20
I63
sg21
I64
sg22
I65
sg23
I66
sg24
I67
sg25
I68
ssI218
(dp325
Velse_opt
p326
I272
sVempty
p327
I274
ssI219
(dp328
g42
I79
sg4
I3
sg5
I4
sg6
I5
sg7
I6
sg8
I7
sg9
I8
sg10
I9
sg11
I10
sg12
I11
sg13
I12
sg14
I13
sg15
I14
sg16
I15
sg17
I19
sg18
I61
sg19
I62
sg20
I63
sg21
I64
sg22
I65
sg23
I66
sg24
I67
sg25
I68
ssI220
(dp329
g90
I275
sg18
I61
sg19
I62
sg20
I63
sg21
I64
sg22
I65
sg23
I66
sg24
I67
sg25
I68
ssI221
(dp330
sI222
(dp331
sI223
(dp332
sI224
(dp333
sI225
(dp334
sI226
(dp335
g119
I277
sg18
I61
sg19
I62
sg20
I63
sg21
I64
sg22
I65
sg23
I66
sg24
I67
sg25
I68
ssI227
(dp336
sI228
(dp337
sI229
(dp338
sI230
(dp339
sI231
(dp340
g135
I278
sg18
I61
sg19
I62
sg20
I63
sg21
I64
sg22
I65
sg23
I66
sg24
I67
sg25
I68
ssI232
(dp341
Vexpression
p342
I162
sVargs_opt
p343
I279
sg133
I160
sg134
I161
sg18
I61
sg19
I62
sg20
I63
sg21
I64
sg22
I65
sg23
I66
sg24
I67
sg25
I68
ssI233
(dp344
sI234
(dp345
Vexpression
p346
I280
sg18
I61
sg19
I62
sg20
I63
sg21
I64
sg22
I65
sg23
I66
sg24
I67
sg25
I68
ssI235
(dp347
sI236
(dp348
sI237
(dp349
sI238
(dp350
sI239
(dp351
sI240
(dp352
sI241
(dp353
sI242
(dp354
sI243
(dp355
sI244
(dp356
sI245
(dp357
sI246
(dp358
sI247
(dp359
sI248
(dp360
sI249
(dp361
sI250
(dp362
sI251
(dp363
sI252
(dp364
sI253
(dp365
sI254
(dp366
sI255
(dp367
sI256
(dp368
sI257
(dp369
sI258
(dp370
sI259
(dp371
sI260
(dp372
sI261
(dp373
sI262
(dp374
sI263
(dp375
sI264
(dp376
sI265
(dp377
sI266
(dp378
sI267
(dp379
sI268
(dp380
sI269
(dp381
sI270
(dp382
sI271
(dp383
sI272
(dp384
sI273
(dp385
Vblock_stmt
p386
I283
sVif_stmt
p387
I284
sVwhen_stmt
p388
I285
ssI274
(dp389
sI275
(dp390
Vblock_stmt
p391
I286
ssI276
(dp392
sI277
(dp393
sI278
(dp394
sI279
(dp395
sI280
(dp396
sI281
(dp397
Vblock_stmt
p398
I289
ssI282
(dp399
g314
I290
ssI283
(dp400
sI284
(dp401
sI285
(dp402
sI286
(dp403
Velse_opt
p404
I291
sg327
I274
ssI287
(dp405
sI288
(dp406
sI289
(dp407
sI290
(dp408
sI291
(dp409
s.(lp0
(VS' -> program
p1
VS'
p2
I1
NNNtp3
a(Vprogram -> statements
p4
Vprogram
p5
I1
Vp_program
p6
Vparser.py
p7
I18
tp8
a(Vstatements -> statements statement
p9
Vstatements
p10
I2
Vp_statements_list
p11
Vparser.py
p12
I22
tp13
a(Vstatements -> statements block_stmt
p14
g10
I2
g11
Vparser.py
p15
I23
tp16
a(Vstatements -> statement
p17
Vstatements
p18
I1
Vp_statements_single
p19
Vparser.py
p20
I30
tp21
a(Vstatements -> block_stmt
p22
g18
I1
g19
Vparser.py
p23
I31
tp24
a(Vstatements -> empty
p25
Vstatements
p26
I1
Vp_statements_empty
p27
Vparser.py
p28
I35
tp29
a(Vblock_stmt -> LBRACE statements RBRACE
p30
Vblock_stmt
p31
I3
Vp_block_stmt
p32
Vparser.py
p33
I39
tp34
a(Vstatement -> variable_decl
p35
Vstatement
p36
I1
Vp_statement
p37
Vparser.py
p38
I44
tp39
a(Vstatement -> function_decl
p40
g36
I1
g37
Vparser.py
p41
I45
tp42
a(Vstatement -> show_stmt
p43
g36
I1
g37
Vparser.py
p44
I46
tp45
a(Vstatement -> print_stmt
p46
g36
I1
g37
Vparser.py
p47
I47
tp48
a(Vstatement -> read_stmt
p49
g36
I1
g37
Vparser.py
p50
I48
tp51
a(Vstatement -> if_stmt
p52
g36
I1
g37
Vparser.py
p53
I49
tp54
a(Vstatement -> when_stmt
p55
g36
I1
g37
Vparser.py
p56
I50
tp57
a(Vstatement -> while_stmt
p58
g36
I1
g37
Vparser.py
p59
I51
tp60
a(Vstatement -> return_stmt
p61
g36
I1
g37
Vparser.py
p62
I52
tp63
a(Vstatement -> expression_stmt
p64
g36
I1
g37
Vparser.py
p65
I53
tp66
a(Vvariable_decl -> LET ID ASSIGN expression
p67
Vvariable_decl
p68
I4
Vp_variable_decl
p69
Vparser.py
p70
I58
tp71
a(Vvariable_decl -> TAKE ID ASSIGN expression
p72
g68
I4
g69
Vparser.py
p73
I59
tp74
a(Vvariable_decl -> HOLD ID ASSIGN expression
p75
g68
I4
g69
Vparser.py
p76
I60
tp77
a(Vvariable_decl -> PUT ID ASSIGN expression
p78
g68
I4
g69
Vparser.py
p79
I61
tp80
a(Vvariable_decl -> SUM ID ASSIGN expression
p81
g68
I4
g69
Vparser.py
p82
I62
tp83
a(Vvariable_decl -> DIFF ID ASSIGN expression
p84
g68
I4
g69
Vparser.py
p85
I63
tp86
a(Vvariable_decl -> PROD ID ASSIGN expression
p87
g68
I4
g69
Vparser.py
p88
I64
tp89
a(Vvariable_decl -> DIV ID ASSIGN expression
p90
g68
I4
g69
Vparser.py
p91
I65
tp92
a(Vvariable_decl -> MOD ID ASSIGN expression
p93
g68
I4
g69
Vparser.py
p94
I66
tp95
a(Vvariable_decl -> TEXT ID ASSIGN expression
p96
g68
I4
g69
Vparser.py
p97
I67
tp98
a(Vvariable_decl -> CONCAT ID ASSIGN expression
p99
g68
I4
g69
Vparser.py
p100
I68
tp101
a(Vvariable_decl -> SLICE ID ASSIGN expression
p102
g68
I4
g69
Vparser.py
p103
I69
tp104
a(Vvariable_decl -> LEN ID ASSIGN expression
p105
g68
I4
g69
Vparser.py
p106
I70
tp107
a(Vvariable_decl -> LIST ID ASSIGN expression
p108
g68
I4
g69
Vparser.py
p109
I71
tp110
a(Vvariable_decl -> ARR ID ASSIGN expression
p111
g68
I4
g69
Vparser.py
p112
I72
tp113
a(Vvariable_decl -> APPEND ID ASSIGN expression
p114
g68
I4
g69
Vparser.py
p115
I73
tp116
a(Vvariable_decl -> REMOVE ID ASSIGN expression
p117
g68
I4
g69
Vparser.py
p118
I74
tp119
a(Vvariable_decl -> MAP ID ASSIGN expression
p120
g68
I4
g69
Vparser.py
p121
I75
tp122
a(Vvariable_decl -> KEY ID ASSIGN expression
p123
g68
I4
g69
Vparser.py
p124
I76
tp125
a(Vvariable_decl -> VALUE ID ASSIGN expression
p126
g68
I4
g69
Vparser.py
p127
I77
tp128
a(Vvariable_decl -> CURRENT ID ASSIGN expression
p129
g68
I4
g69
Vparser.py
p130
I78
tp131
a(Vvariable_decl -> NOW ID ASSIGN expression
p132
g68
I4
g69
Vparser.py
p133
I79
tp134
a(Vvariable_decl -> YEAR ID ASSIGN expression
p135
g68
I4
g69
Vparser.py
p136
I80
tp137
a(Vvariable_decl -> MONTH ID ASSIGN expression
p138
g68
I4
g69
Vparser.py
p139
I81
tp140
a(Vvariable_decl -> DAY ID ASSIGN expression
p141
g68
I4
g69
Vparser.py
p142
I82
tp143
a(Vvariable_decl -> HOUR ID ASSIGN expression
p144
g68
I4
g69
Vparser.py
p145
I83
tp146
a(Vvariable_decl -> MINUTE ID ASSIGN expression
p147
g68
I4
g69
Vparser.py
p148
I84
tp149
a(Vvariable_decl -> SECOND ID ASSIGN expression
p150
g68
I4
g69
Vparser.py
p151
I85
tp152
a(Vvariable_decl -> STORE ID ASSIGN expression
p153
g68
I4
g69
Vparser.py
p154
I86
tp155
a(Vvariable_decl -> BOX ID ASSIGN expression
p156
g68
I4
g69
Vparser.py
p157
I87
tp158
a(Vvariable_decl -> REF ID ASSIGN expression
p159
g68
I4
g69
Vparser.py
p160
I88
tp161
a(Vfunction_decl -> FUN ID LPAREN params_opt RPAREN block_stmt
p162
Vfunction_decl
p163
I6
Vp_function_decl
p164
Vparser.py
p165
I93
tp166
a(Vparams_opt -> param_list
p167
Vparams_opt
p168
I1
Vp_params_opt
p169
Vparser.py
p170
I97
tp171
a(Vparams_opt -> empty
p172
g168
I1
g169
Vparser.py
p173
I98
tp174
a(Vparam_list -> param_list COMMA param
p175
Vparam_list
p176
I3
Vp_param_list_multi
p177
Vparser.py
p178
I102
tp179
a(Vparam_list -> param
p180
Vparam_list
p181
I1
Vp_param_list_single
p182
Vparser.py
p183
I106
tp184
a(Vparam -> ID
p185
Vparam
p186
I1
Vp_param
p187
Vparser.py
p188
I110
tp189
a(Vshow_stmt -> SHOW expression opt_colon_expression
p190
Vshow_stmt
p191
I3
Vp_show_stmt
p192
Vparser.py
p193
I115
tp194
a(Vshow_stmt -> SHOW expression
p195
g191
I2
g192
Vparser.py
p196
I116
tp197
a(Vprint_stmt -> PRINT expression opt_colon_expression
p198
Vprint_stmt
p199
I3
Vp_print_stmt
p200
Vparser.py
p201
I123
tp202
a(Vprint_stmt -> PRINT expression
p203
g199
I2
g200
Vparser.py
p204
I124
tp205
a(Vread_stmt -> READ ID opt_assign_expression
p206
Vread_stmt
p207
I3
Vp_read_stmt
p208
Vparser.py
p209
I131
tp210
a(Vread_stmt -> READ ID
p211
g207
I2
g208
Vparser.py
p212
I132
tp213
a(Vopt_colon_expression -> COLON expression
p214
Vopt_colon_expression
p215
I2
Vp_opt_colon_expression
p216
Vparser.py
p217
I139
tp218
a(Vopt_assign_expression -> ASSIGN expression
p219
Vopt_assign_expression
p220
I2
Vp_opt_assign_expression
p221
Vparser.py
p222
I143
tp223
a(Vif_stmt -> IF expression block_stmt else_opt
p224
Vif_stmt
p225
I4
Vp_if_stmt
p226
Vparser.py
p227
I148
tp228
a(Vwhen_stmt -> WHEN expression IS expression block_stmt else_opt
p229
Vwhen_stmt
p230
I6
Vp_when_stmt
p231
Vparser.py
p232
I152
tp233
a(Velse_opt -> ELSE block_stmt
p234
Velse_opt
p235
I2
Vp_else_opt
p236
Vparser.py
p237
I156
tp238
a(Velse_opt -> ELSE if_stmt
p239
g235
I2
g236
Vparser.py
p240
I157
tp241
a(Velse_opt -> ELSE when_stmt
p242
g235
I2
g236
Vparser.py
p243
I158
tp244
a(Velse_opt -> empty
p245
g235
I1
g236
Vparser.py
p246
I159
tp247
a(Vwhile_stmt -> WHILE expression block_stmt
p248
Vwhile_stmt
p249
I3
Vp_while_stmt
p250
Vparser.py
p251
I166
tp252
a(Vreturn_stmt -> RETURN expression
p253
Vreturn_stmt
p254
I2
Vp_return_stmt
p255
Vparser.py
p256
I170
tp257
a(Vreturn_stmt -> RETURN
p258
g254
I1
g255
Vparser.py
p259
I171
tp260
a(Vexpression_stmt -> expression
p261
Vexpression_stmt
p262
I1
Vp_expression_stmt
p263
Vparser.py
p264
I179
tp265
a(Vexpression -> ID ASSIGN expression
p266
Vexpression
p267
I3
Vp_expression_assign
p268
Vparser.py
p269
I198
tp270
a(Vexpression -> expression PLUS expression
p271
Vexpression
p272
I3
Vp_expression_binop
p273
Vparser.py
p274
I202
tp275
a(Vexpression -> expression MINUS expression
p276
g272
I3
g273
Vparser.py
p277
I203
tp278
a(Vexpression -> expression MULTIPLY expression
p279
g272
I3
g273
Vparser.py
p280
I204
tp281
a(Vexpression -> expression DIVIDE expression
p282
g272
I3
g273
Vparser.py
p283
I205
tp284
a(Vexpression -> expression MODULO expression
p285
g272
I3
g273
Vparser.py
p286
I206
tp287
a(Vexpression -> expression EQ expression
p288
g272
I3
g273
Vparser.py
p289
I207
tp290
a(Vexpression -> expression NE expression
p291
g272
I3
g273
Vparser.py
p292
I208
tp293
a(Vexpression -> expression LT expression
p294
g272
I3
g273
Vparser.py
p295
I209
tp296
a(Vexpression -> expression LE expression
p297
g272
I3
g273
Vparser.py
p298
I210
tp299
a(Vexpression -> expression GT expression
p300
g272
I3
g273
Vparser.py
p301
I211
tp302
a(Vexpression -> expression GE expression
p303
g272
I3
g273
Vparser.py
p304
I212
tp305
a(Vexpression -> expression AND expression
p306
g272
I3
g273
Vparser.py
p307
I213
tp308
a(Vexpression -> expression OR expression
p309
g272
I3
g273
Vparser.py
p310
I214
tp311
a(Vexpression -> expression IS expression
p312
Vexpression
p313
I3
Vp_expression_comparison
p314
Vparser.py
p315
I218
tp316
a(Vexpression -> MINUS expression
p317
Vexpression
p318
I2
Vp_expression_unary_minus
p319
Vparser.py
p320
I222
tp321
a(Vexpression -> NOT expression
p322
Vexpression
p323
I2
Vp_expression_not
p324
Vparser.py
p325
I226
tp326
a(Vexpression -> LPAREN expression RPAREN
p327
Vexpression
p328
I3
Vp_expression_group
p329
Vparser.py
p330
I230
tp331
a(Vexpression -> literal
p332
Vexpression
p333
I1
Vp_expression_terminals
p334
Vparser.py
p335
I234
tp336
a(Vexpression -> ID
p337
g333
I1
g334
Vparser.py
p338
I235
tp339
a(Vexpression -> function_call
p340
g333
I1
g334
Vparser.py
p341
I236
tp342
a(Vexpression -> interpolated_string
p343
g333
I1
g334
Vparser.py
p344
I237
tp345
a(Vexpression -> list_expression
p346
g333
I1
g334
Vparser.py
p347
I238
tp348
a(Vexpression -> map_expression
p349
g333
I1
g334
Vparser.py
p350
I239
tp351
a(Vexpression -> member_expression
p352
g333
I1
g334
Vparser.py
p353
I240
tp354
a(Vexpression -> index_expression
p355
g333
I1
g334
Vparser.py
p356
I241
tp357
a(Vexpression -> slice_expression
p358
g333
I1
g334
Vparser.py
p359
I242
tp360
a(Vmember_expression -> expression DOT ID
p361
Vmember_expression
p362
I3
Vp_member_expression
p363
Vparser.py
p364
I246
tp365
a(Vmember_expression -> expression DOT ID LPAREN args_opt RPAREN
p366
Vmember_expression
p367
I6
Vp_member_call
p368
Vparser.py
p369
I250
tp370
a(Vindex_expression -> expression LBRACKET expression RBRACKET
p371
Vindex_expression
p372
I4
Vp_index_expression
p373
Vparser.py
p374
I254
tp375
a(Vslice_expression -> expression LBRACKET expression COLON expression RBRACKET
p376
Vslice_expression
p377
I6
Vp_slice_expression
p378
Vparser.py
p379
I258
tp380
a(Vlist_expression -> LBRACKET list_items RBRACKET
p381
Vlist_expression
p382
I3
Vp_list_expression
p383
Vparser.py
p384
I262
tp385
a(Vlist_items -> list_items COMMA expression
p386
Vlist_items
p387
I3
Vp_list_items
p388
Vparser.py
p389
I266
tp390
a(Vlist_items -> expression
p391
g387
I1
g388
Vparser.py
p392
I267
tp393
a(Vlist_items -> empty
p394
g387
I1
g388
Vparser.py
p395
I268
tp396
a(Vmap_expression -> LBRACE map_items RBRACE
p397
Vmap_expression
p398
I3
Vp_map_expression
p399
Vparser.py
p400
I277
tp401
a(Vmap_items -> map_items COMMA map_item
p402
Vmap_items
p403
I3
Vp_map_items
p404
Vparser.py
p405
I281
tp406
a(Vmap_items -> map_item
p407
g403
I1
g404
Vparser.py
p408
I282
tp409
a(Vmap_items -> empty
p410
g403
I1
g404
Vparser.py
p411
I283
tp412
a(Vmap_item -> expression COLON expression
p413
Vmap_item
p414
I3
Vp_map_item
p415
Vparser.py
p416
I292
tp417
a(Vliteral -> INTEGER
p418
Vliteral
p419
I1
Vp_literal
p420
Vparser.py
p421
I296
tp422
a(Vliteral -> FLOAT
p423
g419
I1
g420
Vparser.py
p424
I297
tp425
a(Vliteral -> TRUE
p426
g419
I1
g420
Vparser.py
p427
I298
tp428
a(Vliteral -> FALSE
p429
g419
I1
g420
Vparser.py
p430
I299
tp431
a(Vliteral -> NULL
p432
g419
I1
g420
Vparser.py
p433
I300
tp434
a(Vliteral -> STRING_LITERAL
p435
g419
I1
g420
Vparser.py
p436
I301
tp437
a(Vfunction_call -> ID LPAREN args_opt RPAREN
p438
Vfunction_call
p439
I4
Vp_function_call
p440
Vparser.py
p441
I308
tp442
a(Vargs_opt -> arg_list
p443
Vargs_opt
p444
I1
Vp_args_opt
p445
Vparser.py
p446
I312
tp447
a(Vargs_opt -> empty
p448
g444
I1
g445
Vparser.py
p449
I313
tp450
a(Varg_list -> arg_list COMMA expression
p451
Varg_list
p452
I3
Vp_arg_list_multi
p453
Vparser.py
p454
I317
tp455
a(Varg_list -> expression
p456
Varg_list
p457
I1
Vp_arg_list_single
p458
Vparser.py
p459
I321
tp460
a(Vinterpolated_string -> STRING_START string_contents STRING_END
p461
Vinterpolated_string
p462
I3
Vp_interpolated_string
p463
Vparser.py
p464
I325
tp465
a(Vstring_contents -> string_contents string_part
p466
Vstring_contents
p467
I2
Vp_string_contents_list
p468
Vparser.py
p469
I329
tp470
a(Vstring_contents -> string_part
p471
Vstring_contents
p472
I1
Vp_string_contents_single
p473
Vparser.py
p474
I333
tp475
a(Vstring_contents -> empty
p476
Vstring_contents
p477
I1
Vp_string_contents_empty
p478
Vparser.py
p479
I337
tp480
a(Vstring_part -> STRING_LITERAL
p481
Vstring_part
p482
I1
Vp_string_part
p483
Vparser.py
p484
I341
tp485
a(Vstring_part -> INTERPOL_START expression INTERPOL_END
p486
g482
I3
g483
Vparser.py
p487
I342
tp488
a(Vempty -> <empty>
p489
Vempty
p490
I0
Vp_empty
p491
Vparser.py
p492
I349
tp493
a.